
out/main.elf:     file format elf32-littlearm


Disassembly of section .text:

08000000 <g_pfnVectors>:
 8000000:	00 00 02 20 49 05 00 08 89 01 00 08 95 01 00 08     ... I...........
 8000010:	9d 01 00 08 a5 01 00 08 ad 01 00 08 00 00 00 00     ................
	...
 800002c:	b5 01 00 08 c1 01 00 08 00 00 00 00 cd 01 00 08     ................
 800003c:	d9 01 00 08 a5 05 00 08 a5 05 00 08 a5 05 00 08     ................
 800004c:	a5 05 00 08 a5 05 00 08 a5 05 00 08 a5 05 00 08     ................
 800005c:	a5 05 00 08 a5 05 00 08 a5 05 00 08 a5 05 00 08     ................
 800006c:	a5 05 00 08 a5 05 00 08 a5 05 00 08 a5 05 00 08     ................
 800007c:	a5 05 00 08 a5 05 00 08 a5 05 00 08 a5 05 00 08     ................
 800008c:	a5 05 00 08 a5 05 00 08 a5 05 00 08 a5 05 00 08     ................
 800009c:	a5 05 00 08 a5 05 00 08 a5 05 00 08 a5 05 00 08     ................
 80000ac:	a5 05 00 08 a5 05 00 08 a5 05 00 08 a5 05 00 08     ................
 80000bc:	a5 05 00 08 a5 05 00 08 a5 05 00 08 a5 05 00 08     ................
 80000cc:	a5 05 00 08 a5 05 00 08 a5 05 00 08 a5 05 00 08     ................
 80000dc:	a5 05 00 08 a5 05 00 08 a5 05 00 08 a5 05 00 08     ................
 80000ec:	a5 05 00 08 a5 05 00 08 a5 05 00 08 a5 05 00 08     ................
 80000fc:	a5 05 00 08 a5 05 00 08 a5 05 00 08 a5 05 00 08     ................
 800010c:	a5 05 00 08 a5 05 00 08 a5 05 00 08 a5 05 00 08     ................
 800011c:	a5 05 00 08 a5 05 00 08 a5 05 00 08 a5 05 00 08     ................
 800012c:	a5 05 00 08 a5 05 00 08 a5 05 00 08 a5 05 00 08     ................
 800013c:	a5 05 00 08 a5 05 00 08 a5 05 00 08 a5 05 00 08     ................
 800014c:	a5 05 00 08 a5 05 00 08 a5 05 00 08 a5 05 00 08     ................
 800015c:	a5 05 00 08 a5 05 00 08 a5 05 00 08 a5 05 00 08     ................
 800016c:	a5 05 00 08 a5 05 00 08 a5 05 00 08 a5 05 00 08     ................
 800017c:	a5 05 00 08 a5 05 00 08 a5 05 00 08                 ............

08000188 <NMI_Handler>:
 8000188:	b480      	push	{r7}
 800018a:	af00      	add	r7, sp, #0
 800018c:	46bd      	mov	sp, r7
 800018e:	bc80      	pop	{r7}
 8000190:	4770      	bx	lr
 8000192:	bf00      	nop

08000194 <HardFault_Handler>:
 8000194:	b480      	push	{r7}
 8000196:	af00      	add	r7, sp, #0
 8000198:	e7fe      	b.n	8000198 <HardFault_Handler+0x4>
 800019a:	bf00      	nop

0800019c <MemManage_Handler>:
 800019c:	b480      	push	{r7}
 800019e:	af00      	add	r7, sp, #0
 80001a0:	e7fe      	b.n	80001a0 <MemManage_Handler+0x4>
 80001a2:	bf00      	nop

080001a4 <BusFault_Handler>:
 80001a4:	b480      	push	{r7}
 80001a6:	af00      	add	r7, sp, #0
 80001a8:	e7fe      	b.n	80001a8 <BusFault_Handler+0x4>
 80001aa:	bf00      	nop

080001ac <UsageFault_Handler>:
 80001ac:	b480      	push	{r7}
 80001ae:	af00      	add	r7, sp, #0
 80001b0:	e7fe      	b.n	80001b0 <UsageFault_Handler+0x4>
 80001b2:	bf00      	nop

080001b4 <SVC_Handler>:
 80001b4:	b480      	push	{r7}
 80001b6:	af00      	add	r7, sp, #0
 80001b8:	46bd      	mov	sp, r7
 80001ba:	bc80      	pop	{r7}
 80001bc:	4770      	bx	lr
 80001be:	bf00      	nop

080001c0 <DebugMon_Handler>:
 80001c0:	b480      	push	{r7}
 80001c2:	af00      	add	r7, sp, #0
 80001c4:	46bd      	mov	sp, r7
 80001c6:	bc80      	pop	{r7}
 80001c8:	4770      	bx	lr
 80001ca:	bf00      	nop

080001cc <PendSV_Handler>:
 80001cc:	b480      	push	{r7}
 80001ce:	af00      	add	r7, sp, #0
 80001d0:	46bd      	mov	sp, r7
 80001d2:	bc80      	pop	{r7}
 80001d4:	4770      	bx	lr
 80001d6:	bf00      	nop

080001d8 <SysTick_Handler>:
 80001d8:	b480      	push	{r7}
 80001da:	af00      	add	r7, sp, #0
 80001dc:	f240 0318 	movw	r3, #24
 80001e0:	f2c2 0300 	movt	r3, #8192	; 0x2000
 80001e4:	681b      	ldr	r3, [r3, #0]
 80001e6:	f103 0201 	add.w	r2, r3, #1
 80001ea:	f240 0318 	movw	r3, #24
 80001ee:	f2c2 0300 	movt	r3, #8192	; 0x2000
 80001f2:	601a      	str	r2, [r3, #0]
 80001f4:	46bd      	mov	sp, r7
 80001f6:	bc80      	pop	{r7}
 80001f8:	4770      	bx	lr
 80001fa:	bf00      	nop

080001fc <low_level_init>:
 80001fc:	b580      	push	{r7, lr}
 80001fe:	af00      	add	r7, sp, #0
 8000200:	f44f 5360 	mov.w	r3, #14336	; 0x3800
 8000204:	f2c4 0302 	movt	r3, #16386	; 0x4002
 8000208:	f44f 5260 	mov.w	r2, #14336	; 0x3800
 800020c:	f2c4 0202 	movt	r2, #16386	; 0x4002
 8000210:	6812      	ldr	r2, [r2, #0]
 8000212:	f042 0201 	orr.w	r2, r2, #1
 8000216:	601a      	str	r2, [r3, #0]
 8000218:	f44f 5360 	mov.w	r3, #14336	; 0x3800
 800021c:	f2c4 0302 	movt	r3, #16386	; 0x4002
 8000220:	f04f 0200 	mov.w	r2, #0
 8000224:	609a      	str	r2, [r3, #8]
 8000226:	f44f 5360 	mov.w	r3, #14336	; 0x3800
 800022a:	f2c4 0302 	movt	r3, #16386	; 0x4002
 800022e:	f44f 5260 	mov.w	r2, #14336	; 0x3800
 8000232:	f2c4 0202 	movt	r2, #16386	; 0x4002
 8000236:	6812      	ldr	r2, [r2, #0]
 8000238:	f022 7284 	bic.w	r2, r2, #17301504	; 0x1080000
 800023c:	f422 3280 	bic.w	r2, r2, #65536	; 0x10000
 8000240:	601a      	str	r2, [r3, #0]
 8000242:	f44f 5360 	mov.w	r3, #14336	; 0x3800
 8000246:	f2c4 0302 	movt	r3, #16386	; 0x4002
 800024a:	f243 0210 	movw	r2, #12304	; 0x3010
 800024e:	f2c2 4200 	movt	r2, #9216	; 0x2400
 8000252:	605a      	str	r2, [r3, #4]
 8000254:	f44f 5360 	mov.w	r3, #14336	; 0x3800
 8000258:	f2c4 0302 	movt	r3, #16386	; 0x4002
 800025c:	f44f 5260 	mov.w	r2, #14336	; 0x3800
 8000260:	f2c4 0202 	movt	r2, #16386	; 0x4002
 8000264:	6812      	ldr	r2, [r2, #0]
 8000266:	f422 2280 	bic.w	r2, r2, #262144	; 0x40000
 800026a:	601a      	str	r2, [r3, #0]
 800026c:	f44f 5360 	mov.w	r3, #14336	; 0x3800
 8000270:	f2c4 0302 	movt	r3, #16386	; 0x4002
 8000274:	f04f 0200 	mov.w	r2, #0
 8000278:	60da      	str	r2, [r3, #12]
 800027a:	f000 f809 	bl	8000290 <SetSysClock>
 800027e:	f44f 436d 	mov.w	r3, #60672	; 0xed00
 8000282:	f2ce 0300 	movt	r3, #57344	; 0xe000
 8000286:	f04f 6200 	mov.w	r2, #134217728	; 0x8000000
 800028a:	609a      	str	r2, [r3, #8]
 800028c:	bd80      	pop	{r7, pc}
 800028e:	bf00      	nop

08000290 <SetSysClock>:
 8000290:	b480      	push	{r7}
 8000292:	b083      	sub	sp, #12
 8000294:	af00      	add	r7, sp, #0
 8000296:	f04f 0300 	mov.w	r3, #0
 800029a:	607b      	str	r3, [r7, #4]
 800029c:	f04f 0300 	mov.w	r3, #0
 80002a0:	603b      	str	r3, [r7, #0]
 80002a2:	f44f 5360 	mov.w	r3, #14336	; 0x3800
 80002a6:	f2c4 0302 	movt	r3, #16386	; 0x4002
 80002aa:	f44f 5260 	mov.w	r2, #14336	; 0x3800
 80002ae:	f2c4 0202 	movt	r2, #16386	; 0x4002
 80002b2:	6812      	ldr	r2, [r2, #0]
 80002b4:	f442 3280 	orr.w	r2, r2, #65536	; 0x10000
 80002b8:	601a      	str	r2, [r3, #0]
 80002ba:	f44f 5360 	mov.w	r3, #14336	; 0x3800
 80002be:	f2c4 0302 	movt	r3, #16386	; 0x4002
 80002c2:	681b      	ldr	r3, [r3, #0]
 80002c4:	f403 3300 	and.w	r3, r3, #131072	; 0x20000
 80002c8:	603b      	str	r3, [r7, #0]
 80002ca:	687b      	ldr	r3, [r7, #4]
 80002cc:	f103 0301 	add.w	r3, r3, #1
 80002d0:	607b      	str	r3, [r7, #4]
 80002d2:	683b      	ldr	r3, [r7, #0]
 80002d4:	2b00      	cmp	r3, #0
 80002d6:	d103      	bne.n	80002e0 <SetSysClock+0x50>
 80002d8:	687b      	ldr	r3, [r7, #4]
 80002da:	f5b3 6fa0 	cmp.w	r3, #1280	; 0x500
 80002de:	d1ec      	bne.n	80002ba <SetSysClock+0x2a>
 80002e0:	f44f 5360 	mov.w	r3, #14336	; 0x3800
 80002e4:	f2c4 0302 	movt	r3, #16386	; 0x4002
 80002e8:	681b      	ldr	r3, [r3, #0]
 80002ea:	f403 3300 	and.w	r3, r3, #131072	; 0x20000
 80002ee:	2b00      	cmp	r3, #0
 80002f0:	d003      	beq.n	80002fa <SetSysClock+0x6a>
 80002f2:	f04f 0301 	mov.w	r3, #1
 80002f6:	603b      	str	r3, [r7, #0]
 80002f8:	e002      	b.n	8000300 <SetSysClock+0x70>
 80002fa:	f04f 0300 	mov.w	r3, #0
 80002fe:	603b      	str	r3, [r7, #0]
 8000300:	683b      	ldr	r3, [r7, #0]
 8000302:	2b01      	cmp	r3, #1
 8000304:	f040 8082 	bne.w	800040c <SetSysClock+0x17c>
 8000308:	f44f 5360 	mov.w	r3, #14336	; 0x3800
 800030c:	f2c4 0302 	movt	r3, #16386	; 0x4002
 8000310:	f44f 5260 	mov.w	r2, #14336	; 0x3800
 8000314:	f2c4 0202 	movt	r2, #16386	; 0x4002
 8000318:	6c12      	ldr	r2, [r2, #64]	; 0x40
 800031a:	f042 5280 	orr.w	r2, r2, #268435456	; 0x10000000
 800031e:	641a      	str	r2, [r3, #64]	; 0x40
 8000320:	f44f 43e0 	mov.w	r3, #28672	; 0x7000
 8000324:	f2c4 0300 	movt	r3, #16384	; 0x4000
 8000328:	f44f 42e0 	mov.w	r2, #28672	; 0x7000
 800032c:	f2c4 0200 	movt	r2, #16384	; 0x4000
 8000330:	6812      	ldr	r2, [r2, #0]
 8000332:	f442 4280 	orr.w	r2, r2, #16384	; 0x4000
 8000336:	601a      	str	r2, [r3, #0]
 8000338:	f44f 5360 	mov.w	r3, #14336	; 0x3800
 800033c:	f2c4 0302 	movt	r3, #16386	; 0x4002
 8000340:	f44f 5260 	mov.w	r2, #14336	; 0x3800
 8000344:	f2c4 0202 	movt	r2, #16386	; 0x4002
 8000348:	6892      	ldr	r2, [r2, #8]
 800034a:	609a      	str	r2, [r3, #8]
 800034c:	f44f 5360 	mov.w	r3, #14336	; 0x3800
 8000350:	f2c4 0302 	movt	r3, #16386	; 0x4002
 8000354:	f44f 5260 	mov.w	r2, #14336	; 0x3800
 8000358:	f2c4 0202 	movt	r2, #16386	; 0x4002
 800035c:	6892      	ldr	r2, [r2, #8]
 800035e:	f442 4200 	orr.w	r2, r2, #32768	; 0x8000
 8000362:	609a      	str	r2, [r3, #8]
 8000364:	f44f 5360 	mov.w	r3, #14336	; 0x3800
 8000368:	f2c4 0302 	movt	r3, #16386	; 0x4002
 800036c:	f44f 5260 	mov.w	r2, #14336	; 0x3800
 8000370:	f2c4 0202 	movt	r2, #16386	; 0x4002
 8000374:	6892      	ldr	r2, [r2, #8]
 8000376:	f442 52a0 	orr.w	r2, r2, #5120	; 0x1400
 800037a:	609a      	str	r2, [r3, #8]
 800037c:	f44f 5360 	mov.w	r3, #14336	; 0x3800
 8000380:	f2c4 0302 	movt	r3, #16386	; 0x4002
 8000384:	f245 4208 	movw	r2, #21512	; 0x5408
 8000388:	f2c0 7240 	movt	r2, #1856	; 0x740
 800038c:	605a      	str	r2, [r3, #4]
 800038e:	f44f 5360 	mov.w	r3, #14336	; 0x3800
 8000392:	f2c4 0302 	movt	r3, #16386	; 0x4002
 8000396:	f44f 5260 	mov.w	r2, #14336	; 0x3800
 800039a:	f2c4 0202 	movt	r2, #16386	; 0x4002
 800039e:	6812      	ldr	r2, [r2, #0]
 80003a0:	f042 7280 	orr.w	r2, r2, #16777216	; 0x1000000
 80003a4:	601a      	str	r2, [r3, #0]
 80003a6:	bf00      	nop
 80003a8:	f44f 5360 	mov.w	r3, #14336	; 0x3800
 80003ac:	f2c4 0302 	movt	r3, #16386	; 0x4002
 80003b0:	681b      	ldr	r3, [r3, #0]
 80003b2:	f003 7300 	and.w	r3, r3, #33554432	; 0x2000000
 80003b6:	2b00      	cmp	r3, #0
 80003b8:	d0f6      	beq.n	80003a8 <SetSysClock+0x118>
 80003ba:	f44f 5370 	mov.w	r3, #15360	; 0x3c00
 80003be:	f2c4 0302 	movt	r3, #16386	; 0x4002
 80003c2:	f240 6205 	movw	r2, #1541	; 0x605
 80003c6:	601a      	str	r2, [r3, #0]
 80003c8:	f44f 5360 	mov.w	r3, #14336	; 0x3800
 80003cc:	f2c4 0302 	movt	r3, #16386	; 0x4002
 80003d0:	f44f 5260 	mov.w	r2, #14336	; 0x3800
 80003d4:	f2c4 0202 	movt	r2, #16386	; 0x4002
 80003d8:	6892      	ldr	r2, [r2, #8]
 80003da:	f022 0203 	bic.w	r2, r2, #3
 80003de:	609a      	str	r2, [r3, #8]
 80003e0:	f44f 5360 	mov.w	r3, #14336	; 0x3800
 80003e4:	f2c4 0302 	movt	r3, #16386	; 0x4002
 80003e8:	f44f 5260 	mov.w	r2, #14336	; 0x3800
 80003ec:	f2c4 0202 	movt	r2, #16386	; 0x4002
 80003f0:	6892      	ldr	r2, [r2, #8]
 80003f2:	f042 0202 	orr.w	r2, r2, #2
 80003f6:	609a      	str	r2, [r3, #8]
 80003f8:	bf00      	nop
 80003fa:	f44f 5360 	mov.w	r3, #14336	; 0x3800
 80003fe:	f2c4 0302 	movt	r3, #16386	; 0x4002
 8000402:	689b      	ldr	r3, [r3, #8]
 8000404:	f003 030c 	and.w	r3, r3, #12
 8000408:	2b08      	cmp	r3, #8
 800040a:	d1f6      	bne.n	80003fa <SetSysClock+0x16a>
 800040c:	f107 070c 	add.w	r7, r7, #12
 8000410:	46bd      	mov	sp, r7
 8000412:	bc80      	pop	{r7}
 8000414:	4770      	bx	lr
 8000416:	bf00      	nop

08000418 <main>:

static void delay(void);

/* main C entry point - should never return */
void main(void)
{
 8000418:	b580      	push	{r7, lr}
 800041a:	af00      	add	r7, sp, #0
    /* Enable peripheral clocks */
    RCC->AHB1ENR |= RCC_AHB1ENR_GPIODEN;
 800041c:	f44f 5360 	mov.w	r3, #14336	; 0x3800
 8000420:	f2c4 0302 	movt	r3, #16386	; 0x4002
 8000424:	f44f 5260 	mov.w	r2, #14336	; 0x3800
 8000428:	f2c4 0202 	movt	r2, #16386	; 0x4002
 800042c:	6b12      	ldr	r2, [r2, #48]	; 0x30
 800042e:	f042 0208 	orr.w	r2, r2, #8
 8000432:	631a      	str	r2, [r3, #48]	; 0x30
    /* Configure pins */
    GPIOD->MODER |= GPIO_MODER_MODER15_0;
 8000434:	f44f 6340 	mov.w	r3, #3072	; 0xc00
 8000438:	f2c4 0302 	movt	r3, #16386	; 0x4002
 800043c:	f44f 6240 	mov.w	r2, #3072	; 0xc00
 8000440:	f2c4 0202 	movt	r2, #16386	; 0x4002
 8000444:	6812      	ldr	r2, [r2, #0]
 8000446:	f042 4280 	orr.w	r2, r2, #1073741824	; 0x40000000
 800044a:	601a      	str	r2, [r3, #0]
    GPIOD->OTYPER &= ~GPIO_OTYPER_OT_15;
 800044c:	f44f 6340 	mov.w	r3, #3072	; 0xc00
 8000450:	f2c4 0302 	movt	r3, #16386	; 0x4002
 8000454:	f44f 6240 	mov.w	r2, #3072	; 0xc00
 8000458:	f2c4 0202 	movt	r2, #16386	; 0x4002
 800045c:	6852      	ldr	r2, [r2, #4]
 800045e:	f422 4200 	bic.w	r2, r2, #32768	; 0x8000
 8000462:	605a      	str	r2, [r3, #4]
    GPIOD->OSPEEDR |= GPIO_OSPEEDER_OSPEEDR15;
 8000464:	f44f 6340 	mov.w	r3, #3072	; 0xc00
 8000468:	f2c4 0302 	movt	r3, #16386	; 0x4002
 800046c:	f44f 6240 	mov.w	r2, #3072	; 0xc00
 8000470:	f2c4 0202 	movt	r2, #16386	; 0x4002
 8000474:	6892      	ldr	r2, [r2, #8]
 8000476:	f042 4240 	orr.w	r2, r2, #3221225472	; 0xc0000000
 800047a:	609a      	str	r2, [r3, #8]
    GPIOD->PUPDR &= ~GPIO_PUPDR_PUPDR15;
 800047c:	f44f 6340 	mov.w	r3, #3072	; 0xc00
 8000480:	f2c4 0302 	movt	r3, #16386	; 0x4002
 8000484:	f44f 6240 	mov.w	r2, #3072	; 0xc00
 8000488:	f2c4 0202 	movt	r2, #16386	; 0x4002
 800048c:	68d2      	ldr	r2, [r2, #12]
 800048e:	f022 4240 	bic.w	r2, r2, #3221225472	; 0xc0000000
 8000492:	60da      	str	r2, [r3, #12]
    
    GPIOD->MODER |= GPIO_MODER_MODER12_0;
 8000494:	f44f 6340 	mov.w	r3, #3072	; 0xc00
 8000498:	f2c4 0302 	movt	r3, #16386	; 0x4002
 800049c:	f44f 6240 	mov.w	r2, #3072	; 0xc00
 80004a0:	f2c4 0202 	movt	r2, #16386	; 0x4002
 80004a4:	6812      	ldr	r2, [r2, #0]
 80004a6:	f042 7280 	orr.w	r2, r2, #16777216	; 0x1000000
 80004aa:	601a      	str	r2, [r3, #0]
    GPIOD->OTYPER &= ~GPIO_OTYPER_OT_12;
 80004ac:	f44f 6340 	mov.w	r3, #3072	; 0xc00
 80004b0:	f2c4 0302 	movt	r3, #16386	; 0x4002
 80004b4:	f44f 6240 	mov.w	r2, #3072	; 0xc00
 80004b8:	f2c4 0202 	movt	r2, #16386	; 0x4002
 80004bc:	6852      	ldr	r2, [r2, #4]
 80004be:	f422 5280 	bic.w	r2, r2, #4096	; 0x1000
 80004c2:	605a      	str	r2, [r3, #4]
    GPIOD->OSPEEDR |= GPIO_OSPEEDER_OSPEEDR12;
 80004c4:	f44f 6340 	mov.w	r3, #3072	; 0xc00
 80004c8:	f2c4 0302 	movt	r3, #16386	; 0x4002
 80004cc:	f44f 6240 	mov.w	r2, #3072	; 0xc00
 80004d0:	f2c4 0202 	movt	r2, #16386	; 0x4002
 80004d4:	6892      	ldr	r2, [r2, #8]
 80004d6:	f042 7240 	orr.w	r2, r2, #50331648	; 0x3000000
 80004da:	609a      	str	r2, [r3, #8]
    GPIOD->PUPDR &= ~GPIO_PUPDR_PUPDR12;
 80004dc:	f44f 6340 	mov.w	r3, #3072	; 0xc00
 80004e0:	f2c4 0302 	movt	r3, #16386	; 0x4002
 80004e4:	f44f 6240 	mov.w	r2, #3072	; 0xc00
 80004e8:	f2c4 0202 	movt	r2, #16386	; 0x4002
 80004ec:	68d2      	ldr	r2, [r2, #12]
 80004ee:	f022 7240 	bic.w	r2, r2, #50331648	; 0x3000000
 80004f2:	60da      	str	r2, [r3, #12]
    while (1)
    {
        static uint8_t led_val = 0;

        /* toggle the led */
        GPIOD->ODR = GPIO_Pin_15 | GPIO_Pin_12;
 80004f4:	f44f 6340 	mov.w	r3, #3072	; 0xc00
 80004f8:	f2c4 0302 	movt	r3, #16386	; 0x4002
 80004fc:	f44f 4210 	mov.w	r2, #36864	; 0x9000
 8000500:	615a      	str	r2, [r3, #20]
        /* wait a bit */
        delay();
 8000502:	f000 f801 	bl	8000508 <delay>
    }
 8000506:	e7f5      	b.n	80004f4 <main+0xdc>

08000508 <delay>:
}

static void delay(void)
{
 8000508:	b480      	push	{r7}
 800050a:	b083      	sub	sp, #12
 800050c:	af00      	add	r7, sp, #0
  int i;
  for(i=0;i<1000;i++)
 800050e:	f04f 0300 	mov.w	r3, #0
 8000512:	607b      	str	r3, [r7, #4]
 8000514:	e003      	b.n	800051e <delay+0x16>
 8000516:	687b      	ldr	r3, [r7, #4]
 8000518:	f103 0301 	add.w	r3, r3, #1
 800051c:	607b      	str	r3, [r7, #4]
 800051e:	687a      	ldr	r2, [r7, #4]
 8000520:	f240 33e7 	movw	r3, #999	; 0x3e7
 8000524:	429a      	cmp	r2, r3
 8000526:	ddf6      	ble.n	8000516 <delay+0xe>
  {
  
  }
}
 8000528:	f107 070c 	add.w	r7, r7, #12
 800052c:	46bd      	mov	sp, r7
 800052e:	bc80      	pop	{r7}
 8000530:	4770      	bx	lr
 8000532:	bf00      	nop
 8000534:	080005a8 	.word	0x080005a8
 8000538:	20000000 	.word	0x20000000
 800053c:	20000014 	.word	0x20000014
 8000540:	20000014 	.word	0x20000014
 8000544:	2000001c 	.word	0x2000001c

08000548 <Reset_Handler>:
 8000548:	2100      	movs	r1, #0
 800054a:	f000 b804 	b.w	8000556 <LoopCopyDataInit>

0800054e <CopyDataInit>:
 800054e:	4b0f      	ldr	r3, [pc, #60]	; (800058c <LoopFillZerobss+0x1e>)
 8000550:	585b      	ldr	r3, [r3, r1]
 8000552:	5043      	str	r3, [r0, r1]
 8000554:	3104      	adds	r1, #4

08000556 <LoopCopyDataInit>:
 8000556:	480e      	ldr	r0, [pc, #56]	; (8000590 <LoopFillZerobss+0x22>)
 8000558:	4b0e      	ldr	r3, [pc, #56]	; (8000594 <LoopFillZerobss+0x26>)
 800055a:	1842      	adds	r2, r0, r1
 800055c:	429a      	cmp	r2, r3
 800055e:	f4ff aff6 	bcc.w	800054e <CopyDataInit>
 8000562:	4a0d      	ldr	r2, [pc, #52]	; (8000598 <LoopFillZerobss+0x2a>)
 8000564:	f000 b803 	b.w	800056e <LoopFillZerobss>

08000568 <FillZerobss>:
 8000568:	2300      	movs	r3, #0
 800056a:	f842 3b04 	str.w	r3, [r2], #4

0800056e <LoopFillZerobss>:
 800056e:	4b0b      	ldr	r3, [pc, #44]	; (800059c <LoopFillZerobss+0x2e>)
 8000570:	429a      	cmp	r2, r3
 8000572:	f4ff aff9 	bcc.w	8000568 <FillZerobss>
 8000576:	480a      	ldr	r0, [pc, #40]	; (80005a0 <LoopFillZerobss+0x32>)
 8000578:	6801      	ldr	r1, [r0, #0]
 800057a:	f441 0170 	orr.w	r1, r1, #15728640	; 0xf00000
 800057e:	6001      	str	r1, [r0, #0]
 8000580:	f7ff fe3c 	bl	80001fc <low_level_init>
 8000584:	f7ff ff48 	bl	8000418 <main>
 8000588:	4770      	bx	lr
 800058a:	df00      	svc	0
 800058c:	080005a8 	.word	0x080005a8
 8000590:	20000000 	.word	0x20000000
 8000594:	20000014 	.word	0x20000014
 8000598:	20000014 	.word	0x20000014
 800059c:	2000001c 	.word	0x2000001c
 80005a0:	e000ed88 	.word	0xe000ed88

080005a4 <ADC_IRQHandler>:
 80005a4:	f7ff bffe 	b.w	80005a4 <ADC_IRQHandler>
