
out/main.elf:     file format elf32-littlearm


Disassembly of section .text:

08000188 <GPIO_DeInit>:
  * @note   By default, The GPIO pins are configured in input floating mode (except JTAG pins).
  * @param  GPIOx: where x can be (A..I) to select the GPIO peripheral.
  * @retval None
  */
void GPIO_DeInit(GPIO_TypeDef* GPIOx)
{
 8000188:	b580      	push	{r7, lr}
 800018a:	b082      	sub	sp, #8
 800018c:	af00      	add	r7, sp, #0
 800018e:	6078      	str	r0, [r7, #4]
  /* Check the parameters */
  assert_param(IS_GPIO_ALL_PERIPH(GPIOx));

  if (GPIOx == GPIOA)
 8000190:	687a      	ldr	r2, [r7, #4]
 8000192:	f04f 0300 	mov.w	r3, #0
 8000196:	f2c4 0302 	movt	r3, #16386	; 0x4002
 800019a:	429a      	cmp	r2, r3
 800019c:	d10c      	bne.n	80001b8 <GPIO_DeInit+0x30>
  {
    RCC_AHB1PeriphResetCmd(RCC_AHB1Periph_GPIOA, ENABLE);
 800019e:	f04f 0001 	mov.w	r0, #1
 80001a2:	f04f 0101 	mov.w	r1, #1
 80001a6:	f001 f867 	bl	8001278 <RCC_AHB1PeriphResetCmd>
    RCC_AHB1PeriphResetCmd(RCC_AHB1Periph_GPIOA, DISABLE);
 80001aa:	f04f 0001 	mov.w	r0, #1
 80001ae:	f04f 0100 	mov.w	r1, #0
 80001b2:	f001 f861 	bl	8001278 <RCC_AHB1PeriphResetCmd>
 80001b6:	e09e      	b.n	80002f6 <GPIO_DeInit+0x16e>
  }
  else if (GPIOx == GPIOB)
 80001b8:	687a      	ldr	r2, [r7, #4]
 80001ba:	f44f 6380 	mov.w	r3, #1024	; 0x400
 80001be:	f2c4 0302 	movt	r3, #16386	; 0x4002
 80001c2:	429a      	cmp	r2, r3
 80001c4:	d10c      	bne.n	80001e0 <GPIO_DeInit+0x58>
  {
    RCC_AHB1PeriphResetCmd(RCC_AHB1Periph_GPIOB, ENABLE);
 80001c6:	f04f 0002 	mov.w	r0, #2
 80001ca:	f04f 0101 	mov.w	r1, #1
 80001ce:	f001 f853 	bl	8001278 <RCC_AHB1PeriphResetCmd>
    RCC_AHB1PeriphResetCmd(RCC_AHB1Periph_GPIOB, DISABLE);
 80001d2:	f04f 0002 	mov.w	r0, #2
 80001d6:	f04f 0100 	mov.w	r1, #0
 80001da:	f001 f84d 	bl	8001278 <RCC_AHB1PeriphResetCmd>
 80001de:	e08a      	b.n	80002f6 <GPIO_DeInit+0x16e>
  }
  else if (GPIOx == GPIOC)
 80001e0:	687a      	ldr	r2, [r7, #4]
 80001e2:	f44f 6300 	mov.w	r3, #2048	; 0x800
 80001e6:	f2c4 0302 	movt	r3, #16386	; 0x4002
 80001ea:	429a      	cmp	r2, r3
 80001ec:	d10c      	bne.n	8000208 <GPIO_DeInit+0x80>
  {
    RCC_AHB1PeriphResetCmd(RCC_AHB1Periph_GPIOC, ENABLE);
 80001ee:	f04f 0004 	mov.w	r0, #4
 80001f2:	f04f 0101 	mov.w	r1, #1
 80001f6:	f001 f83f 	bl	8001278 <RCC_AHB1PeriphResetCmd>
    RCC_AHB1PeriphResetCmd(RCC_AHB1Periph_GPIOC, DISABLE);
 80001fa:	f04f 0004 	mov.w	r0, #4
 80001fe:	f04f 0100 	mov.w	r1, #0
 8000202:	f001 f839 	bl	8001278 <RCC_AHB1PeriphResetCmd>
 8000206:	e076      	b.n	80002f6 <GPIO_DeInit+0x16e>
  }
  else if (GPIOx == GPIOD)
 8000208:	687a      	ldr	r2, [r7, #4]
 800020a:	f44f 6340 	mov.w	r3, #3072	; 0xc00
 800020e:	f2c4 0302 	movt	r3, #16386	; 0x4002
 8000212:	429a      	cmp	r2, r3
 8000214:	d10c      	bne.n	8000230 <GPIO_DeInit+0xa8>
  {
    RCC_AHB1PeriphResetCmd(RCC_AHB1Periph_GPIOD, ENABLE);
 8000216:	f04f 0008 	mov.w	r0, #8
 800021a:	f04f 0101 	mov.w	r1, #1
 800021e:	f001 f82b 	bl	8001278 <RCC_AHB1PeriphResetCmd>
    RCC_AHB1PeriphResetCmd(RCC_AHB1Periph_GPIOD, DISABLE);
 8000222:	f04f 0008 	mov.w	r0, #8
 8000226:	f04f 0100 	mov.w	r1, #0
 800022a:	f001 f825 	bl	8001278 <RCC_AHB1PeriphResetCmd>
 800022e:	e062      	b.n	80002f6 <GPIO_DeInit+0x16e>
  }
  else if (GPIOx == GPIOE)
 8000230:	687a      	ldr	r2, [r7, #4]
 8000232:	f44f 5380 	mov.w	r3, #4096	; 0x1000
 8000236:	f2c4 0302 	movt	r3, #16386	; 0x4002
 800023a:	429a      	cmp	r2, r3
 800023c:	d10c      	bne.n	8000258 <GPIO_DeInit+0xd0>
  {
    RCC_AHB1PeriphResetCmd(RCC_AHB1Periph_GPIOE, ENABLE);
 800023e:	f04f 0010 	mov.w	r0, #16
 8000242:	f04f 0101 	mov.w	r1, #1
 8000246:	f001 f817 	bl	8001278 <RCC_AHB1PeriphResetCmd>
    RCC_AHB1PeriphResetCmd(RCC_AHB1Periph_GPIOE, DISABLE);
 800024a:	f04f 0010 	mov.w	r0, #16
 800024e:	f04f 0100 	mov.w	r1, #0
 8000252:	f001 f811 	bl	8001278 <RCC_AHB1PeriphResetCmd>
 8000256:	e04e      	b.n	80002f6 <GPIO_DeInit+0x16e>
  }
  else if (GPIOx == GPIOF)
 8000258:	687a      	ldr	r2, [r7, #4]
 800025a:	f44f 53a0 	mov.w	r3, #5120	; 0x1400
 800025e:	f2c4 0302 	movt	r3, #16386	; 0x4002
 8000262:	429a      	cmp	r2, r3
 8000264:	d10c      	bne.n	8000280 <GPIO_DeInit+0xf8>
  {
    RCC_AHB1PeriphResetCmd(RCC_AHB1Periph_GPIOF, ENABLE);
 8000266:	f04f 0020 	mov.w	r0, #32
 800026a:	f04f 0101 	mov.w	r1, #1
 800026e:	f001 f803 	bl	8001278 <RCC_AHB1PeriphResetCmd>
    RCC_AHB1PeriphResetCmd(RCC_AHB1Periph_GPIOF, DISABLE);
 8000272:	f04f 0020 	mov.w	r0, #32
 8000276:	f04f 0100 	mov.w	r1, #0
 800027a:	f000 fffd 	bl	8001278 <RCC_AHB1PeriphResetCmd>
 800027e:	e03a      	b.n	80002f6 <GPIO_DeInit+0x16e>
  }
  else if (GPIOx == GPIOG)
 8000280:	687a      	ldr	r2, [r7, #4]
 8000282:	f44f 53c0 	mov.w	r3, #6144	; 0x1800
 8000286:	f2c4 0302 	movt	r3, #16386	; 0x4002
 800028a:	429a      	cmp	r2, r3
 800028c:	d10c      	bne.n	80002a8 <GPIO_DeInit+0x120>
  {
    RCC_AHB1PeriphResetCmd(RCC_AHB1Periph_GPIOG, ENABLE);
 800028e:	f04f 0040 	mov.w	r0, #64	; 0x40
 8000292:	f04f 0101 	mov.w	r1, #1
 8000296:	f000 ffef 	bl	8001278 <RCC_AHB1PeriphResetCmd>
    RCC_AHB1PeriphResetCmd(RCC_AHB1Periph_GPIOG, DISABLE);
 800029a:	f04f 0040 	mov.w	r0, #64	; 0x40
 800029e:	f04f 0100 	mov.w	r1, #0
 80002a2:	f000 ffe9 	bl	8001278 <RCC_AHB1PeriphResetCmd>
 80002a6:	e026      	b.n	80002f6 <GPIO_DeInit+0x16e>
  }
  else if (GPIOx == GPIOH)
 80002a8:	687a      	ldr	r2, [r7, #4]
 80002aa:	f44f 53e0 	mov.w	r3, #7168	; 0x1c00
 80002ae:	f2c4 0302 	movt	r3, #16386	; 0x4002
 80002b2:	429a      	cmp	r2, r3
 80002b4:	d10c      	bne.n	80002d0 <GPIO_DeInit+0x148>
  {
    RCC_AHB1PeriphResetCmd(RCC_AHB1Periph_GPIOH, ENABLE);
 80002b6:	f04f 0080 	mov.w	r0, #128	; 0x80
 80002ba:	f04f 0101 	mov.w	r1, #1
 80002be:	f000 ffdb 	bl	8001278 <RCC_AHB1PeriphResetCmd>
    RCC_AHB1PeriphResetCmd(RCC_AHB1Periph_GPIOH, DISABLE);
 80002c2:	f04f 0080 	mov.w	r0, #128	; 0x80
 80002c6:	f04f 0100 	mov.w	r1, #0
 80002ca:	f000 ffd5 	bl	8001278 <RCC_AHB1PeriphResetCmd>
 80002ce:	e012      	b.n	80002f6 <GPIO_DeInit+0x16e>
  }
  else
  {
    if (GPIOx == GPIOI)
 80002d0:	687a      	ldr	r2, [r7, #4]
 80002d2:	f44f 5300 	mov.w	r3, #8192	; 0x2000
 80002d6:	f2c4 0302 	movt	r3, #16386	; 0x4002
 80002da:	429a      	cmp	r2, r3
 80002dc:	d10b      	bne.n	80002f6 <GPIO_DeInit+0x16e>
    {
      RCC_AHB1PeriphResetCmd(RCC_AHB1Periph_GPIOI, ENABLE);
 80002de:	f44f 7080 	mov.w	r0, #256	; 0x100
 80002e2:	f04f 0101 	mov.w	r1, #1
 80002e6:	f000 ffc7 	bl	8001278 <RCC_AHB1PeriphResetCmd>
      RCC_AHB1PeriphResetCmd(RCC_AHB1Periph_GPIOI, DISABLE);
 80002ea:	f44f 7080 	mov.w	r0, #256	; 0x100
 80002ee:	f04f 0100 	mov.w	r1, #0
 80002f2:	f000 ffc1 	bl	8001278 <RCC_AHB1PeriphResetCmd>
    }
  }
}
 80002f6:	f107 0708 	add.w	r7, r7, #8
 80002fa:	46bd      	mov	sp, r7
 80002fc:	bd80      	pop	{r7, pc}
 80002fe:	bf00      	nop

08000300 <GPIO_Init>:
  * @param  GPIO_InitStruct: pointer to a GPIO_InitTypeDef structure that contains
  *         the configuration information for the specified GPIO peripheral.
  * @retval None
  */
void GPIO_Init(GPIO_TypeDef* GPIOx, GPIO_InitTypeDef* GPIO_InitStruct)
{
 8000300:	b480      	push	{r7}
 8000302:	b087      	sub	sp, #28
 8000304:	af00      	add	r7, sp, #0
 8000306:	6078      	str	r0, [r7, #4]
 8000308:	6039      	str	r1, [r7, #0]
  uint32_t pinpos = 0x00, pos = 0x00 , currentpin = 0x00;
 800030a:	f04f 0300 	mov.w	r3, #0
 800030e:	617b      	str	r3, [r7, #20]
 8000310:	f04f 0300 	mov.w	r3, #0
 8000314:	613b      	str	r3, [r7, #16]
 8000316:	f04f 0300 	mov.w	r3, #0
 800031a:	60fb      	str	r3, [r7, #12]
  assert_param(IS_GPIO_MODE(GPIO_InitStruct->GPIO_Mode));
  assert_param(IS_GPIO_PUPD(GPIO_InitStruct->GPIO_PuPd));

  /* -------------------------Configure the port pins---------------- */
  /*-- GPIO Mode Configuration --*/
  for (pinpos = 0x00; pinpos < 0x10; pinpos++)
 800031c:	f04f 0300 	mov.w	r3, #0
 8000320:	617b      	str	r3, [r7, #20]
 8000322:	e086      	b.n	8000432 <GPIO_Init+0x132>
  {
    pos = ((uint32_t)0x01) << pinpos;
 8000324:	697b      	ldr	r3, [r7, #20]
 8000326:	f04f 0201 	mov.w	r2, #1
 800032a:	fa02 f303 	lsl.w	r3, r2, r3
 800032e:	613b      	str	r3, [r7, #16]
    /* Get the port pins position */
    currentpin = (GPIO_InitStruct->GPIO_Pin) & pos;
 8000330:	683b      	ldr	r3, [r7, #0]
 8000332:	681a      	ldr	r2, [r3, #0]
 8000334:	693b      	ldr	r3, [r7, #16]
 8000336:	4013      	ands	r3, r2
 8000338:	60fb      	str	r3, [r7, #12]

    if (currentpin == pos)
 800033a:	68fa      	ldr	r2, [r7, #12]
 800033c:	693b      	ldr	r3, [r7, #16]
 800033e:	429a      	cmp	r2, r3
 8000340:	d173      	bne.n	800042a <GPIO_Init+0x12a>
    {
      GPIOx->MODER  &= ~(GPIO_MODER_MODER0 << (pinpos * 2));
 8000342:	687b      	ldr	r3, [r7, #4]
 8000344:	681a      	ldr	r2, [r3, #0]
 8000346:	697b      	ldr	r3, [r7, #20]
 8000348:	ea4f 0343 	mov.w	r3, r3, lsl #1
 800034c:	f04f 0103 	mov.w	r1, #3
 8000350:	fa01 f303 	lsl.w	r3, r1, r3
 8000354:	ea6f 0303 	mvn.w	r3, r3
 8000358:	401a      	ands	r2, r3
 800035a:	687b      	ldr	r3, [r7, #4]
 800035c:	601a      	str	r2, [r3, #0]
      GPIOx->MODER |= (((uint32_t)GPIO_InitStruct->GPIO_Mode) << (pinpos * 2));
 800035e:	687b      	ldr	r3, [r7, #4]
 8000360:	681a      	ldr	r2, [r3, #0]
 8000362:	683b      	ldr	r3, [r7, #0]
 8000364:	791b      	ldrb	r3, [r3, #4]
 8000366:	4619      	mov	r1, r3
 8000368:	697b      	ldr	r3, [r7, #20]
 800036a:	ea4f 0343 	mov.w	r3, r3, lsl #1
 800036e:	fa01 f303 	lsl.w	r3, r1, r3
 8000372:	431a      	orrs	r2, r3
 8000374:	687b      	ldr	r3, [r7, #4]
 8000376:	601a      	str	r2, [r3, #0]

      if ((GPIO_InitStruct->GPIO_Mode == GPIO_Mode_OUT) || (GPIO_InitStruct->GPIO_Mode == GPIO_Mode_AF))
 8000378:	683b      	ldr	r3, [r7, #0]
 800037a:	791b      	ldrb	r3, [r3, #4]
 800037c:	2b01      	cmp	r3, #1
 800037e:	d003      	beq.n	8000388 <GPIO_Init+0x88>
 8000380:	683b      	ldr	r3, [r7, #0]
 8000382:	791b      	ldrb	r3, [r3, #4]
 8000384:	2b02      	cmp	r3, #2
 8000386:	d134      	bne.n	80003f2 <GPIO_Init+0xf2>
      {
        /* Check Speed mode parameters */
        assert_param(IS_GPIO_SPEED(GPIO_InitStruct->GPIO_Speed));

        /* Speed mode configuration */
        GPIOx->OSPEEDR &= ~(GPIO_OSPEEDER_OSPEEDR0 << (pinpos * 2));
 8000388:	687b      	ldr	r3, [r7, #4]
 800038a:	689a      	ldr	r2, [r3, #8]
 800038c:	697b      	ldr	r3, [r7, #20]
 800038e:	ea4f 0343 	mov.w	r3, r3, lsl #1
 8000392:	f04f 0103 	mov.w	r1, #3
 8000396:	fa01 f303 	lsl.w	r3, r1, r3
 800039a:	ea6f 0303 	mvn.w	r3, r3
 800039e:	401a      	ands	r2, r3
 80003a0:	687b      	ldr	r3, [r7, #4]
 80003a2:	609a      	str	r2, [r3, #8]
        GPIOx->OSPEEDR |= ((uint32_t)(GPIO_InitStruct->GPIO_Speed) << (pinpos * 2));
 80003a4:	687b      	ldr	r3, [r7, #4]
 80003a6:	689a      	ldr	r2, [r3, #8]
 80003a8:	683b      	ldr	r3, [r7, #0]
 80003aa:	795b      	ldrb	r3, [r3, #5]
 80003ac:	4619      	mov	r1, r3
 80003ae:	697b      	ldr	r3, [r7, #20]
 80003b0:	ea4f 0343 	mov.w	r3, r3, lsl #1
 80003b4:	fa01 f303 	lsl.w	r3, r1, r3
 80003b8:	431a      	orrs	r2, r3
 80003ba:	687b      	ldr	r3, [r7, #4]
 80003bc:	609a      	str	r2, [r3, #8]

        /* Check Output mode parameters */
        assert_param(IS_GPIO_OTYPE(GPIO_InitStruct->GPIO_OType));

        /* Output mode configuration*/
        GPIOx->OTYPER  &= ~((GPIO_OTYPER_OT_0) << ((uint16_t)pinpos)) ;
 80003be:	687b      	ldr	r3, [r7, #4]
 80003c0:	685a      	ldr	r2, [r3, #4]
 80003c2:	697b      	ldr	r3, [r7, #20]
 80003c4:	b29b      	uxth	r3, r3
 80003c6:	f04f 0101 	mov.w	r1, #1
 80003ca:	fa01 f303 	lsl.w	r3, r1, r3
 80003ce:	ea6f 0303 	mvn.w	r3, r3
 80003d2:	401a      	ands	r2, r3
 80003d4:	687b      	ldr	r3, [r7, #4]
 80003d6:	605a      	str	r2, [r3, #4]
        GPIOx->OTYPER |= (uint16_t)(((uint16_t)GPIO_InitStruct->GPIO_OType) << ((uint16_t)pinpos));
 80003d8:	687b      	ldr	r3, [r7, #4]
 80003da:	685a      	ldr	r2, [r3, #4]
 80003dc:	683b      	ldr	r3, [r7, #0]
 80003de:	799b      	ldrb	r3, [r3, #6]
 80003e0:	4619      	mov	r1, r3
 80003e2:	697b      	ldr	r3, [r7, #20]
 80003e4:	b29b      	uxth	r3, r3
 80003e6:	fa01 f303 	lsl.w	r3, r1, r3
 80003ea:	b29b      	uxth	r3, r3
 80003ec:	431a      	orrs	r2, r3
 80003ee:	687b      	ldr	r3, [r7, #4]
 80003f0:	605a      	str	r2, [r3, #4]
      }

      /* Pull-up Pull down resistor configuration*/
      GPIOx->PUPDR &= ~(GPIO_PUPDR_PUPDR0 << ((uint16_t)pinpos * 2));
 80003f2:	687b      	ldr	r3, [r7, #4]
 80003f4:	68da      	ldr	r2, [r3, #12]
 80003f6:	697b      	ldr	r3, [r7, #20]
 80003f8:	b29b      	uxth	r3, r3
 80003fa:	ea4f 0343 	mov.w	r3, r3, lsl #1
 80003fe:	f04f 0103 	mov.w	r1, #3
 8000402:	fa01 f303 	lsl.w	r3, r1, r3
 8000406:	ea6f 0303 	mvn.w	r3, r3
 800040a:	401a      	ands	r2, r3
 800040c:	687b      	ldr	r3, [r7, #4]
 800040e:	60da      	str	r2, [r3, #12]
      GPIOx->PUPDR |= (((uint32_t)GPIO_InitStruct->GPIO_PuPd) << (pinpos * 2));
 8000410:	687b      	ldr	r3, [r7, #4]
 8000412:	68da      	ldr	r2, [r3, #12]
 8000414:	683b      	ldr	r3, [r7, #0]
 8000416:	79db      	ldrb	r3, [r3, #7]
 8000418:	4619      	mov	r1, r3
 800041a:	697b      	ldr	r3, [r7, #20]
 800041c:	ea4f 0343 	mov.w	r3, r3, lsl #1
 8000420:	fa01 f303 	lsl.w	r3, r1, r3
 8000424:	431a      	orrs	r2, r3
 8000426:	687b      	ldr	r3, [r7, #4]
 8000428:	60da      	str	r2, [r3, #12]
  assert_param(IS_GPIO_MODE(GPIO_InitStruct->GPIO_Mode));
  assert_param(IS_GPIO_PUPD(GPIO_InitStruct->GPIO_PuPd));

  /* -------------------------Configure the port pins---------------- */
  /*-- GPIO Mode Configuration --*/
  for (pinpos = 0x00; pinpos < 0x10; pinpos++)
 800042a:	697b      	ldr	r3, [r7, #20]
 800042c:	f103 0301 	add.w	r3, r3, #1
 8000430:	617b      	str	r3, [r7, #20]
 8000432:	697b      	ldr	r3, [r7, #20]
 8000434:	2b0f      	cmp	r3, #15
 8000436:	f67f af75 	bls.w	8000324 <GPIO_Init+0x24>
      /* Pull-up Pull down resistor configuration*/
      GPIOx->PUPDR &= ~(GPIO_PUPDR_PUPDR0 << ((uint16_t)pinpos * 2));
      GPIOx->PUPDR |= (((uint32_t)GPIO_InitStruct->GPIO_PuPd) << (pinpos * 2));
    }
  }
}
 800043a:	f107 071c 	add.w	r7, r7, #28
 800043e:	46bd      	mov	sp, r7
 8000440:	bc80      	pop	{r7}
 8000442:	4770      	bx	lr

08000444 <GPIO_StructInit>:
  * @brief  Fills each GPIO_InitStruct member with its default value.
  * @param  GPIO_InitStruct : pointer to a GPIO_InitTypeDef structure which will be initialized.
  * @retval None
  */
void GPIO_StructInit(GPIO_InitTypeDef* GPIO_InitStruct)
{
 8000444:	b480      	push	{r7}
 8000446:	b083      	sub	sp, #12
 8000448:	af00      	add	r7, sp, #0
 800044a:	6078      	str	r0, [r7, #4]
  /* Reset GPIO init structure parameters values */
  GPIO_InitStruct->GPIO_Pin  = GPIO_Pin_All;
 800044c:	687b      	ldr	r3, [r7, #4]
 800044e:	f64f 72ff 	movw	r2, #65535	; 0xffff
 8000452:	601a      	str	r2, [r3, #0]
  GPIO_InitStruct->GPIO_Mode = GPIO_Mode_IN;
 8000454:	687b      	ldr	r3, [r7, #4]
 8000456:	f04f 0200 	mov.w	r2, #0
 800045a:	711a      	strb	r2, [r3, #4]
  GPIO_InitStruct->GPIO_Speed = GPIO_Speed_2MHz;
 800045c:	687b      	ldr	r3, [r7, #4]
 800045e:	f04f 0200 	mov.w	r2, #0
 8000462:	715a      	strb	r2, [r3, #5]
  GPIO_InitStruct->GPIO_OType = GPIO_OType_PP;
 8000464:	687b      	ldr	r3, [r7, #4]
 8000466:	f04f 0200 	mov.w	r2, #0
 800046a:	719a      	strb	r2, [r3, #6]
  GPIO_InitStruct->GPIO_PuPd = GPIO_PuPd_NOPULL;
 800046c:	687b      	ldr	r3, [r7, #4]
 800046e:	f04f 0200 	mov.w	r2, #0
 8000472:	71da      	strb	r2, [r3, #7]
}
 8000474:	f107 070c 	add.w	r7, r7, #12
 8000478:	46bd      	mov	sp, r7
 800047a:	bc80      	pop	{r7}
 800047c:	4770      	bx	lr
 800047e:	bf00      	nop

08000480 <GPIO_PinLockConfig>:
  * @param  GPIO_Pin: specifies the port bit to be locked.
  *          This parameter can be any combination of GPIO_Pin_x where x can be (0..15).
  * @retval None
  */
void GPIO_PinLockConfig(GPIO_TypeDef* GPIOx, uint16_t GPIO_Pin)
{
 8000480:	b480      	push	{r7}
 8000482:	b085      	sub	sp, #20
 8000484:	af00      	add	r7, sp, #0
 8000486:	6078      	str	r0, [r7, #4]
 8000488:	460b      	mov	r3, r1
 800048a:	807b      	strh	r3, [r7, #2]
  __IO uint32_t tmp = 0x00010000;
 800048c:	f44f 3380 	mov.w	r3, #65536	; 0x10000
 8000490:	60fb      	str	r3, [r7, #12]

  /* Check the parameters */
  assert_param(IS_GPIO_ALL_PERIPH(GPIOx));
  assert_param(IS_GPIO_PIN(GPIO_Pin));

  tmp |= GPIO_Pin;
 8000492:	887a      	ldrh	r2, [r7, #2]
 8000494:	68fb      	ldr	r3, [r7, #12]
 8000496:	4313      	orrs	r3, r2
 8000498:	60fb      	str	r3, [r7, #12]
  /* Set LCKK bit */
  GPIOx->LCKR = tmp;
 800049a:	68fa      	ldr	r2, [r7, #12]
 800049c:	687b      	ldr	r3, [r7, #4]
 800049e:	61da      	str	r2, [r3, #28]
  /* Reset LCKK bit */
  GPIOx->LCKR =  GPIO_Pin;
 80004a0:	887a      	ldrh	r2, [r7, #2]
 80004a2:	687b      	ldr	r3, [r7, #4]
 80004a4:	61da      	str	r2, [r3, #28]
  /* Set LCKK bit */
  GPIOx->LCKR = tmp;
 80004a6:	68fa      	ldr	r2, [r7, #12]
 80004a8:	687b      	ldr	r3, [r7, #4]
 80004aa:	61da      	str	r2, [r3, #28]
  /* Read LCKK bit*/
  tmp = GPIOx->LCKR;
 80004ac:	687b      	ldr	r3, [r7, #4]
 80004ae:	69db      	ldr	r3, [r3, #28]
 80004b0:	60fb      	str	r3, [r7, #12]
  /* Read LCKK bit*/
  tmp = GPIOx->LCKR;
 80004b2:	687b      	ldr	r3, [r7, #4]
 80004b4:	69db      	ldr	r3, [r3, #28]
 80004b6:	60fb      	str	r3, [r7, #12]
}
 80004b8:	f107 0714 	add.w	r7, r7, #20
 80004bc:	46bd      	mov	sp, r7
 80004be:	bc80      	pop	{r7}
 80004c0:	4770      	bx	lr
 80004c2:	bf00      	nop

080004c4 <GPIO_ReadInputDataBit>:
  * @param  GPIO_Pin: specifies the port bit to read.
  *         This parameter can be GPIO_Pin_x where x can be (0..15).
  * @retval The input port pin value.
  */
uint8_t GPIO_ReadInputDataBit(GPIO_TypeDef* GPIOx, uint16_t GPIO_Pin)
{
 80004c4:	b480      	push	{r7}
 80004c6:	b085      	sub	sp, #20
 80004c8:	af00      	add	r7, sp, #0
 80004ca:	6078      	str	r0, [r7, #4]
 80004cc:	460b      	mov	r3, r1
 80004ce:	807b      	strh	r3, [r7, #2]
  uint8_t bitstatus = 0x00;
 80004d0:	f04f 0300 	mov.w	r3, #0
 80004d4:	73fb      	strb	r3, [r7, #15]

  /* Check the parameters */
  assert_param(IS_GPIO_ALL_PERIPH(GPIOx));
  assert_param(IS_GET_GPIO_PIN(GPIO_Pin));

  if ((GPIOx->IDR & GPIO_Pin) != (uint32_t)Bit_RESET)
 80004d6:	687b      	ldr	r3, [r7, #4]
 80004d8:	691a      	ldr	r2, [r3, #16]
 80004da:	887b      	ldrh	r3, [r7, #2]
 80004dc:	4013      	ands	r3, r2
 80004de:	2b00      	cmp	r3, #0
 80004e0:	d003      	beq.n	80004ea <GPIO_ReadInputDataBit+0x26>
  {
    bitstatus = (uint8_t)Bit_SET;
 80004e2:	f04f 0301 	mov.w	r3, #1
 80004e6:	73fb      	strb	r3, [r7, #15]
 80004e8:	e002      	b.n	80004f0 <GPIO_ReadInputDataBit+0x2c>
  }
  else
  {
    bitstatus = (uint8_t)Bit_RESET;
 80004ea:	f04f 0300 	mov.w	r3, #0
 80004ee:	73fb      	strb	r3, [r7, #15]
  }
  return bitstatus;
 80004f0:	7bfb      	ldrb	r3, [r7, #15]
}
 80004f2:	4618      	mov	r0, r3
 80004f4:	f107 0714 	add.w	r7, r7, #20
 80004f8:	46bd      	mov	sp, r7
 80004fa:	bc80      	pop	{r7}
 80004fc:	4770      	bx	lr
 80004fe:	bf00      	nop

08000500 <GPIO_ReadInputData>:
  * @brief  Reads the specified GPIO input data port.
  * @param  GPIOx: where x can be (A..I) to select the GPIO peripheral.
  * @retval GPIO input data port value.
  */
uint16_t GPIO_ReadInputData(GPIO_TypeDef* GPIOx)
{
 8000500:	b480      	push	{r7}
 8000502:	b083      	sub	sp, #12
 8000504:	af00      	add	r7, sp, #0
 8000506:	6078      	str	r0, [r7, #4]
  /* Check the parameters */
  assert_param(IS_GPIO_ALL_PERIPH(GPIOx));

  return ((uint16_t)GPIOx->IDR);
 8000508:	687b      	ldr	r3, [r7, #4]
 800050a:	691b      	ldr	r3, [r3, #16]
 800050c:	b29b      	uxth	r3, r3
}
 800050e:	4618      	mov	r0, r3
 8000510:	f107 070c 	add.w	r7, r7, #12
 8000514:	46bd      	mov	sp, r7
 8000516:	bc80      	pop	{r7}
 8000518:	4770      	bx	lr
 800051a:	bf00      	nop

0800051c <GPIO_ReadOutputDataBit>:
  * @param  GPIO_Pin: specifies the port bit to read.
  *          This parameter can be GPIO_Pin_x where x can be (0..15).
  * @retval The output port pin value.
  */
uint8_t GPIO_ReadOutputDataBit(GPIO_TypeDef* GPIOx, uint16_t GPIO_Pin)
{
 800051c:	b480      	push	{r7}
 800051e:	b085      	sub	sp, #20
 8000520:	af00      	add	r7, sp, #0
 8000522:	6078      	str	r0, [r7, #4]
 8000524:	460b      	mov	r3, r1
 8000526:	807b      	strh	r3, [r7, #2]
  uint8_t bitstatus = 0x00;
 8000528:	f04f 0300 	mov.w	r3, #0
 800052c:	73fb      	strb	r3, [r7, #15]

  /* Check the parameters */
  assert_param(IS_GPIO_ALL_PERIPH(GPIOx));
  assert_param(IS_GET_GPIO_PIN(GPIO_Pin));

  if ((GPIOx->ODR & GPIO_Pin) != (uint32_t)Bit_RESET)
 800052e:	687b      	ldr	r3, [r7, #4]
 8000530:	695a      	ldr	r2, [r3, #20]
 8000532:	887b      	ldrh	r3, [r7, #2]
 8000534:	4013      	ands	r3, r2
 8000536:	2b00      	cmp	r3, #0
 8000538:	d003      	beq.n	8000542 <GPIO_ReadOutputDataBit+0x26>
  {
    bitstatus = (uint8_t)Bit_SET;
 800053a:	f04f 0301 	mov.w	r3, #1
 800053e:	73fb      	strb	r3, [r7, #15]
 8000540:	e002      	b.n	8000548 <GPIO_ReadOutputDataBit+0x2c>
  }
  else
  {
    bitstatus = (uint8_t)Bit_RESET;
 8000542:	f04f 0300 	mov.w	r3, #0
 8000546:	73fb      	strb	r3, [r7, #15]
  }
  return bitstatus;
 8000548:	7bfb      	ldrb	r3, [r7, #15]
}
 800054a:	4618      	mov	r0, r3
 800054c:	f107 0714 	add.w	r7, r7, #20
 8000550:	46bd      	mov	sp, r7
 8000552:	bc80      	pop	{r7}
 8000554:	4770      	bx	lr
 8000556:	bf00      	nop

08000558 <GPIO_ReadOutputData>:
  * @brief  Reads the specified GPIO output data port.
  * @param  GPIOx: where x can be (A..I) to select the GPIO peripheral.
  * @retval GPIO output data port value.
  */
uint16_t GPIO_ReadOutputData(GPIO_TypeDef* GPIOx)
{
 8000558:	b480      	push	{r7}
 800055a:	b083      	sub	sp, #12
 800055c:	af00      	add	r7, sp, #0
 800055e:	6078      	str	r0, [r7, #4]
  /* Check the parameters */
  assert_param(IS_GPIO_ALL_PERIPH(GPIOx));

  return ((uint16_t)GPIOx->ODR);
 8000560:	687b      	ldr	r3, [r7, #4]
 8000562:	695b      	ldr	r3, [r3, #20]
 8000564:	b29b      	uxth	r3, r3
}
 8000566:	4618      	mov	r0, r3
 8000568:	f107 070c 	add.w	r7, r7, #12
 800056c:	46bd      	mov	sp, r7
 800056e:	bc80      	pop	{r7}
 8000570:	4770      	bx	lr
 8000572:	bf00      	nop

08000574 <GPIO_SetBits>:
  * @param  GPIO_Pin: specifies the port bits to be written.
  *          This parameter can be any combination of GPIO_Pin_x where x can be (0..15).
  * @retval None
  */
void GPIO_SetBits(GPIO_TypeDef* GPIOx, uint16_t GPIO_Pin)
{
 8000574:	b480      	push	{r7}
 8000576:	b083      	sub	sp, #12
 8000578:	af00      	add	r7, sp, #0
 800057a:	6078      	str	r0, [r7, #4]
 800057c:	460b      	mov	r3, r1
 800057e:	807b      	strh	r3, [r7, #2]
  /* Check the parameters */
  assert_param(IS_GPIO_ALL_PERIPH(GPIOx));
  assert_param(IS_GPIO_PIN(GPIO_Pin));

  GPIOx->BSRRL = GPIO_Pin;
 8000580:	687b      	ldr	r3, [r7, #4]
 8000582:	887a      	ldrh	r2, [r7, #2]
 8000584:	831a      	strh	r2, [r3, #24]
}
 8000586:	f107 070c 	add.w	r7, r7, #12
 800058a:	46bd      	mov	sp, r7
 800058c:	bc80      	pop	{r7}
 800058e:	4770      	bx	lr

08000590 <GPIO_ResetBits>:
  * @param  GPIO_Pin: specifies the port bits to be written.
  *          This parameter can be any combination of GPIO_Pin_x where x can be (0..15).
  * @retval None
  */
void GPIO_ResetBits(GPIO_TypeDef* GPIOx, uint16_t GPIO_Pin)
{
 8000590:	b480      	push	{r7}
 8000592:	b083      	sub	sp, #12
 8000594:	af00      	add	r7, sp, #0
 8000596:	6078      	str	r0, [r7, #4]
 8000598:	460b      	mov	r3, r1
 800059a:	807b      	strh	r3, [r7, #2]
  /* Check the parameters */
  assert_param(IS_GPIO_ALL_PERIPH(GPIOx));
  assert_param(IS_GPIO_PIN(GPIO_Pin));

  GPIOx->BSRRH = GPIO_Pin;
 800059c:	687b      	ldr	r3, [r7, #4]
 800059e:	887a      	ldrh	r2, [r7, #2]
 80005a0:	835a      	strh	r2, [r3, #26]
}
 80005a2:	f107 070c 	add.w	r7, r7, #12
 80005a6:	46bd      	mov	sp, r7
 80005a8:	bc80      	pop	{r7}
 80005aa:	4770      	bx	lr

080005ac <GPIO_WriteBit>:
  *            @arg Bit_RESET: to clear the port pin
  *            @arg Bit_SET: to set the port pin
  * @retval None
  */
void GPIO_WriteBit(GPIO_TypeDef* GPIOx, uint16_t GPIO_Pin, BitAction BitVal)
{
 80005ac:	b480      	push	{r7}
 80005ae:	b083      	sub	sp, #12
 80005b0:	af00      	add	r7, sp, #0
 80005b2:	6078      	str	r0, [r7, #4]
 80005b4:	4613      	mov	r3, r2
 80005b6:	460a      	mov	r2, r1
 80005b8:	807a      	strh	r2, [r7, #2]
 80005ba:	707b      	strb	r3, [r7, #1]
  /* Check the parameters */
  assert_param(IS_GPIO_ALL_PERIPH(GPIOx));
  assert_param(IS_GET_GPIO_PIN(GPIO_Pin));
  assert_param(IS_GPIO_BIT_ACTION(BitVal));

  if (BitVal != Bit_RESET)
 80005bc:	787b      	ldrb	r3, [r7, #1]
 80005be:	2b00      	cmp	r3, #0
 80005c0:	d003      	beq.n	80005ca <GPIO_WriteBit+0x1e>
  {
    GPIOx->BSRRL = GPIO_Pin;
 80005c2:	687b      	ldr	r3, [r7, #4]
 80005c4:	887a      	ldrh	r2, [r7, #2]
 80005c6:	831a      	strh	r2, [r3, #24]
 80005c8:	e002      	b.n	80005d0 <GPIO_WriteBit+0x24>
  }
  else
  {
    GPIOx->BSRRH = GPIO_Pin ;
 80005ca:	687b      	ldr	r3, [r7, #4]
 80005cc:	887a      	ldrh	r2, [r7, #2]
 80005ce:	835a      	strh	r2, [r3, #26]
  }
}
 80005d0:	f107 070c 	add.w	r7, r7, #12
 80005d4:	46bd      	mov	sp, r7
 80005d6:	bc80      	pop	{r7}
 80005d8:	4770      	bx	lr
 80005da:	bf00      	nop

080005dc <GPIO_Write>:
  * @param  GPIOx: where x can be (A..I) to select the GPIO peripheral.
  * @param  PortVal: specifies the value to be written to the port output data register.
  * @retval None
  */
void GPIO_Write(GPIO_TypeDef* GPIOx, uint16_t PortVal)
{
 80005dc:	b480      	push	{r7}
 80005de:	b083      	sub	sp, #12
 80005e0:	af00      	add	r7, sp, #0
 80005e2:	6078      	str	r0, [r7, #4]
 80005e4:	460b      	mov	r3, r1
 80005e6:	807b      	strh	r3, [r7, #2]
  /* Check the parameters */
  assert_param(IS_GPIO_ALL_PERIPH(GPIOx));

  GPIOx->ODR = PortVal;
 80005e8:	887a      	ldrh	r2, [r7, #2]
 80005ea:	687b      	ldr	r3, [r7, #4]
 80005ec:	615a      	str	r2, [r3, #20]
}
 80005ee:	f107 070c 	add.w	r7, r7, #12
 80005f2:	46bd      	mov	sp, r7
 80005f4:	bc80      	pop	{r7}
 80005f6:	4770      	bx	lr

080005f8 <GPIO_ToggleBits>:
  * @param  GPIOx: where x can be (A..I) to select the GPIO peripheral.
  * @param  GPIO_Pin: Specifies the pins to be toggled.
  * @retval None
  */
void GPIO_ToggleBits(GPIO_TypeDef* GPIOx, uint16_t GPIO_Pin)
{
 80005f8:	b480      	push	{r7}
 80005fa:	b083      	sub	sp, #12
 80005fc:	af00      	add	r7, sp, #0
 80005fe:	6078      	str	r0, [r7, #4]
 8000600:	460b      	mov	r3, r1
 8000602:	807b      	strh	r3, [r7, #2]
  /* Check the parameters */
  assert_param(IS_GPIO_ALL_PERIPH(GPIOx));

  GPIOx->ODR ^= GPIO_Pin;
 8000604:	687b      	ldr	r3, [r7, #4]
 8000606:	695a      	ldr	r2, [r3, #20]
 8000608:	887b      	ldrh	r3, [r7, #2]
 800060a:	405a      	eors	r2, r3
 800060c:	687b      	ldr	r3, [r7, #4]
 800060e:	615a      	str	r2, [r3, #20]
}
 8000610:	f107 070c 	add.w	r7, r7, #12
 8000614:	46bd      	mov	sp, r7
 8000616:	bc80      	pop	{r7}
 8000618:	4770      	bx	lr
 800061a:	bf00      	nop

0800061c <GPIO_PinAFConfig>:
  *            @arg GPIO_AF_DCMI: Connect DCMI pins to AF13
  *            @arg GPIO_AF_EVENTOUT: Connect EVENTOUT pins to AF15
  * @retval None
  */
void GPIO_PinAFConfig(GPIO_TypeDef* GPIOx, uint16_t GPIO_PinSource, uint8_t GPIO_AF)
{
 800061c:	b480      	push	{r7}
 800061e:	b085      	sub	sp, #20
 8000620:	af00      	add	r7, sp, #0
 8000622:	6078      	str	r0, [r7, #4]
 8000624:	4613      	mov	r3, r2
 8000626:	460a      	mov	r2, r1
 8000628:	807a      	strh	r2, [r7, #2]
 800062a:	707b      	strb	r3, [r7, #1]
  uint32_t temp = 0x00;
 800062c:	f04f 0300 	mov.w	r3, #0
 8000630:	60fb      	str	r3, [r7, #12]
  uint32_t temp_2 = 0x00;
 8000632:	f04f 0300 	mov.w	r3, #0
 8000636:	60bb      	str	r3, [r7, #8]
  /* Check the parameters */
  assert_param(IS_GPIO_ALL_PERIPH(GPIOx));
  assert_param(IS_GPIO_PIN_SOURCE(GPIO_PinSource));
  assert_param(IS_GPIO_AF(GPIO_AF));
  
  temp = ((uint32_t)(GPIO_AF) << ((uint32_t)((uint32_t)GPIO_PinSource & (uint32_t)0x07) * 4)) ;
 8000638:	787a      	ldrb	r2, [r7, #1]
 800063a:	887b      	ldrh	r3, [r7, #2]
 800063c:	f003 0307 	and.w	r3, r3, #7
 8000640:	ea4f 0383 	mov.w	r3, r3, lsl #2
 8000644:	fa02 f303 	lsl.w	r3, r2, r3
 8000648:	60fb      	str	r3, [r7, #12]
  GPIOx->AFR[GPIO_PinSource >> 0x03] &= ~((uint32_t)0xF << ((uint32_t)((uint32_t)GPIO_PinSource & (uint32_t)0x07) * 4)) ;
 800064a:	887b      	ldrh	r3, [r7, #2]
 800064c:	ea4f 03d3 	mov.w	r3, r3, lsr #3
 8000650:	b29b      	uxth	r3, r3
 8000652:	461a      	mov	r2, r3
 8000654:	887b      	ldrh	r3, [r7, #2]
 8000656:	ea4f 03d3 	mov.w	r3, r3, lsr #3
 800065a:	b29b      	uxth	r3, r3
 800065c:	4619      	mov	r1, r3
 800065e:	687b      	ldr	r3, [r7, #4]
 8000660:	f101 0108 	add.w	r1, r1, #8
 8000664:	f853 1021 	ldr.w	r1, [r3, r1, lsl #2]
 8000668:	887b      	ldrh	r3, [r7, #2]
 800066a:	f003 0307 	and.w	r3, r3, #7
 800066e:	ea4f 0383 	mov.w	r3, r3, lsl #2
 8000672:	f04f 000f 	mov.w	r0, #15
 8000676:	fa00 f303 	lsl.w	r3, r0, r3
 800067a:	ea6f 0303 	mvn.w	r3, r3
 800067e:	4019      	ands	r1, r3
 8000680:	687b      	ldr	r3, [r7, #4]
 8000682:	f102 0208 	add.w	r2, r2, #8
 8000686:	f843 1022 	str.w	r1, [r3, r2, lsl #2]
  temp_2 = GPIOx->AFR[GPIO_PinSource >> 0x03] | temp;
 800068a:	887b      	ldrh	r3, [r7, #2]
 800068c:	ea4f 03d3 	mov.w	r3, r3, lsr #3
 8000690:	b29b      	uxth	r3, r3
 8000692:	461a      	mov	r2, r3
 8000694:	687b      	ldr	r3, [r7, #4]
 8000696:	f102 0208 	add.w	r2, r2, #8
 800069a:	f853 2022 	ldr.w	r2, [r3, r2, lsl #2]
 800069e:	68fb      	ldr	r3, [r7, #12]
 80006a0:	4313      	orrs	r3, r2
 80006a2:	60bb      	str	r3, [r7, #8]
  GPIOx->AFR[GPIO_PinSource >> 0x03] = temp_2;
 80006a4:	887b      	ldrh	r3, [r7, #2]
 80006a6:	ea4f 03d3 	mov.w	r3, r3, lsr #3
 80006aa:	b29b      	uxth	r3, r3
 80006ac:	461a      	mov	r2, r3
 80006ae:	687b      	ldr	r3, [r7, #4]
 80006b0:	f102 0208 	add.w	r2, r2, #8
 80006b4:	68b9      	ldr	r1, [r7, #8]
 80006b6:	f843 1022 	str.w	r1, [r3, r2, lsl #2]
}
 80006ba:	f107 0714 	add.w	r7, r7, #20
 80006be:	46bd      	mov	sp, r7
 80006c0:	bc80      	pop	{r7}
 80006c2:	4770      	bx	lr

080006c4 <low_level_init>:
  *         SystemFrequency variable.
  * @param  None
  * @retval None
  */
void low_level_init(void)
{
 80006c4:	b580      	push	{r7, lr}
 80006c6:	af00      	add	r7, sp, #0
  /* Reset the RCC clock configuration to the default reset state ------------*/
  /* Set HSION bit */
  RCC->CR |= (uint32_t)0x00000001;
 80006c8:	f44f 5360 	mov.w	r3, #14336	; 0x3800
 80006cc:	f2c4 0302 	movt	r3, #16386	; 0x4002
 80006d0:	f44f 5260 	mov.w	r2, #14336	; 0x3800
 80006d4:	f2c4 0202 	movt	r2, #16386	; 0x4002
 80006d8:	6812      	ldr	r2, [r2, #0]
 80006da:	f042 0201 	orr.w	r2, r2, #1
 80006de:	601a      	str	r2, [r3, #0]

  /* Reset CFGR register */
  RCC->CFGR = 0x00000000;
 80006e0:	f44f 5360 	mov.w	r3, #14336	; 0x3800
 80006e4:	f2c4 0302 	movt	r3, #16386	; 0x4002
 80006e8:	f04f 0200 	mov.w	r2, #0
 80006ec:	609a      	str	r2, [r3, #8]

  /* Reset HSEON, CSSON and PLLON bits */
  RCC->CR &= (uint32_t)0xFEF6FFFF;
 80006ee:	f44f 5360 	mov.w	r3, #14336	; 0x3800
 80006f2:	f2c4 0302 	movt	r3, #16386	; 0x4002
 80006f6:	f44f 5260 	mov.w	r2, #14336	; 0x3800
 80006fa:	f2c4 0202 	movt	r2, #16386	; 0x4002
 80006fe:	6812      	ldr	r2, [r2, #0]
 8000700:	f022 7284 	bic.w	r2, r2, #17301504	; 0x1080000
 8000704:	f422 3280 	bic.w	r2, r2, #65536	; 0x10000
 8000708:	601a      	str	r2, [r3, #0]

  /* Reset PLLCFGR register */
  RCC->PLLCFGR = 0x24003010;
 800070a:	f44f 5360 	mov.w	r3, #14336	; 0x3800
 800070e:	f2c4 0302 	movt	r3, #16386	; 0x4002
 8000712:	f243 0210 	movw	r2, #12304	; 0x3010
 8000716:	f2c2 4200 	movt	r2, #9216	; 0x2400
 800071a:	605a      	str	r2, [r3, #4]

  /* Reset HSEBYP bit */
  RCC->CR &= (uint32_t)0xFFFBFFFF;
 800071c:	f44f 5360 	mov.w	r3, #14336	; 0x3800
 8000720:	f2c4 0302 	movt	r3, #16386	; 0x4002
 8000724:	f44f 5260 	mov.w	r2, #14336	; 0x3800
 8000728:	f2c4 0202 	movt	r2, #16386	; 0x4002
 800072c:	6812      	ldr	r2, [r2, #0]
 800072e:	f422 2280 	bic.w	r2, r2, #262144	; 0x40000
 8000732:	601a      	str	r2, [r3, #0]

  /* Disable all interrupts */
  RCC->CIR = 0x00000000;
 8000734:	f44f 5360 	mov.w	r3, #14336	; 0x3800
 8000738:	f2c4 0302 	movt	r3, #16386	; 0x4002
 800073c:	f04f 0200 	mov.w	r2, #0
 8000740:	60da      	str	r2, [r3, #12]

  /* Configure the System clock source, PLL Multiplier and Divider factors, 
     AHB/APBx prescalers and Flash settings ----------------------------------*/
  SetSysClock();
 8000742:	f000 f80b 	bl	800075c <SetSysClock>

  /* Configure the Vector Table location add offset address ------------------*/
#ifdef VECT_TAB_SRAM
  copy_vector_table_to_sram();
 8000746:	f000 f8cf 	bl	80008e8 <copy_vector_table_to_sram>
  SCB->VTOR = SRAM_BASE | VECT_TAB_OFFSET; /* Vector Table Relocation in Internal SRAM */
 800074a:	f44f 436d 	mov.w	r3, #60672	; 0xed00
 800074e:	f2ce 0300 	movt	r3, #57344	; 0xe000
 8000752:	f04f 5200 	mov.w	r2, #536870912	; 0x20000000
 8000756:	609a      	str	r2, [r3, #8]
#else
  SCB->VTOR = FLASH_BASE | VECT_TAB_OFFSET; /* Vector Table Relocation in Internal FLASH */
#endif
}
 8000758:	bd80      	pop	{r7, pc}
 800075a:	bf00      	nop

0800075c <SetSysClock>:
  *         is reset to the default reset state (done in SystemInit() function).   
  * @param  None
  * @retval None
  */
static void SetSysClock(void)
{
 800075c:	b480      	push	{r7}
 800075e:	b083      	sub	sp, #12
 8000760:	af00      	add	r7, sp, #0
/******************************************************************************/
/*            PLL (clocked by HSE) used as System clock source                */
/******************************************************************************/
  __IO uint32_t StartUpCounter = 0, HSEStatus = 0;
 8000762:	f04f 0300 	mov.w	r3, #0
 8000766:	607b      	str	r3, [r7, #4]
 8000768:	f04f 0300 	mov.w	r3, #0
 800076c:	603b      	str	r3, [r7, #0]
  
  /* Enable HSE */
  RCC->CR |= ((uint32_t)RCC_CR_HSEON);
 800076e:	f44f 5360 	mov.w	r3, #14336	; 0x3800
 8000772:	f2c4 0302 	movt	r3, #16386	; 0x4002
 8000776:	f44f 5260 	mov.w	r2, #14336	; 0x3800
 800077a:	f2c4 0202 	movt	r2, #16386	; 0x4002
 800077e:	6812      	ldr	r2, [r2, #0]
 8000780:	f442 3280 	orr.w	r2, r2, #65536	; 0x10000
 8000784:	601a      	str	r2, [r3, #0]
 
  /* Wait till HSE is ready and if Time out is reached exit */
  do
  {
    HSEStatus = RCC->CR & RCC_CR_HSERDY;
 8000786:	f44f 5360 	mov.w	r3, #14336	; 0x3800
 800078a:	f2c4 0302 	movt	r3, #16386	; 0x4002
 800078e:	681b      	ldr	r3, [r3, #0]
 8000790:	f403 3300 	and.w	r3, r3, #131072	; 0x20000
 8000794:	603b      	str	r3, [r7, #0]
    StartUpCounter++;
 8000796:	687b      	ldr	r3, [r7, #4]
 8000798:	f103 0301 	add.w	r3, r3, #1
 800079c:	607b      	str	r3, [r7, #4]
  } while((HSEStatus == 0) && (StartUpCounter != HSE_STARTUP_TIMEOUT));
 800079e:	683b      	ldr	r3, [r7, #0]
 80007a0:	2b00      	cmp	r3, #0
 80007a2:	d103      	bne.n	80007ac <SetSysClock+0x50>
 80007a4:	687b      	ldr	r3, [r7, #4]
 80007a6:	f5b3 6fa0 	cmp.w	r3, #1280	; 0x500
 80007aa:	d1ec      	bne.n	8000786 <SetSysClock+0x2a>

  if ((RCC->CR & RCC_CR_HSERDY) != RESET)
 80007ac:	f44f 5360 	mov.w	r3, #14336	; 0x3800
 80007b0:	f2c4 0302 	movt	r3, #16386	; 0x4002
 80007b4:	681b      	ldr	r3, [r3, #0]
 80007b6:	f403 3300 	and.w	r3, r3, #131072	; 0x20000
 80007ba:	2b00      	cmp	r3, #0
 80007bc:	d003      	beq.n	80007c6 <SetSysClock+0x6a>
  {
    HSEStatus = (uint32_t)0x01;
 80007be:	f04f 0301 	mov.w	r3, #1
 80007c2:	603b      	str	r3, [r7, #0]
 80007c4:	e002      	b.n	80007cc <SetSysClock+0x70>
  }
  else
  {
    HSEStatus = (uint32_t)0x00;
 80007c6:	f04f 0300 	mov.w	r3, #0
 80007ca:	603b      	str	r3, [r7, #0]
  }

  if (HSEStatus == (uint32_t)0x01)
 80007cc:	683b      	ldr	r3, [r7, #0]
 80007ce:	2b01      	cmp	r3, #1
 80007d0:	f040 8083 	bne.w	80008da <SetSysClock+0x17e>
  {
    /* Enable high performance mode, System frequency up to 168 MHz */
    RCC->APB1ENR |= RCC_APB1ENR_PWREN;
 80007d4:	f44f 5360 	mov.w	r3, #14336	; 0x3800
 80007d8:	f2c4 0302 	movt	r3, #16386	; 0x4002
 80007dc:	f44f 5260 	mov.w	r2, #14336	; 0x3800
 80007e0:	f2c4 0202 	movt	r2, #16386	; 0x4002
 80007e4:	6c12      	ldr	r2, [r2, #64]	; 0x40
 80007e6:	f042 5280 	orr.w	r2, r2, #268435456	; 0x10000000
 80007ea:	641a      	str	r2, [r3, #64]	; 0x40
    PWR->CR |= PWR_CR_PMODE;  
 80007ec:	f44f 43e0 	mov.w	r3, #28672	; 0x7000
 80007f0:	f2c4 0300 	movt	r3, #16384	; 0x4000
 80007f4:	f44f 42e0 	mov.w	r2, #28672	; 0x7000
 80007f8:	f2c4 0200 	movt	r2, #16384	; 0x4000
 80007fc:	6812      	ldr	r2, [r2, #0]
 80007fe:	f442 4280 	orr.w	r2, r2, #16384	; 0x4000
 8000802:	601a      	str	r2, [r3, #0]

    /* HCLK = SYSCLK / 1*/
    RCC->CFGR |= RCC_CFGR_HPRE_DIV1;
 8000804:	f44f 5360 	mov.w	r3, #14336	; 0x3800
 8000808:	f2c4 0302 	movt	r3, #16386	; 0x4002
 800080c:	f44f 5260 	mov.w	r2, #14336	; 0x3800
 8000810:	f2c4 0202 	movt	r2, #16386	; 0x4002
 8000814:	6892      	ldr	r2, [r2, #8]
 8000816:	609a      	str	r2, [r3, #8]
      
    /* PCLK2 = HCLK / 2*/
    RCC->CFGR |= RCC_CFGR_PPRE2_DIV2;
 8000818:	f44f 5360 	mov.w	r3, #14336	; 0x3800
 800081c:	f2c4 0302 	movt	r3, #16386	; 0x4002
 8000820:	f44f 5260 	mov.w	r2, #14336	; 0x3800
 8000824:	f2c4 0202 	movt	r2, #16386	; 0x4002
 8000828:	6892      	ldr	r2, [r2, #8]
 800082a:	f442 4200 	orr.w	r2, r2, #32768	; 0x8000
 800082e:	609a      	str	r2, [r3, #8]
    
    /* PCLK1 = HCLK / 4*/
    RCC->CFGR |= RCC_CFGR_PPRE1_DIV4;
 8000830:	f44f 5360 	mov.w	r3, #14336	; 0x3800
 8000834:	f2c4 0302 	movt	r3, #16386	; 0x4002
 8000838:	f44f 5260 	mov.w	r2, #14336	; 0x3800
 800083c:	f2c4 0202 	movt	r2, #16386	; 0x4002
 8000840:	6892      	ldr	r2, [r2, #8]
 8000842:	f442 52a0 	orr.w	r2, r2, #5120	; 0x1400
 8000846:	609a      	str	r2, [r3, #8]

    /* Configure the main PLL */
    RCC->PLLCFGR = PLL_M | (PLL_N << 6) | (((PLL_P >> 1) -1) << 16) |
 8000848:	f44f 5360 	mov.w	r3, #14336	; 0x3800
 800084c:	f2c4 0302 	movt	r3, #16386	; 0x4002
 8000850:	f245 4208 	movw	r2, #21512	; 0x5408
 8000854:	f2c0 7240 	movt	r2, #1856	; 0x740
 8000858:	605a      	str	r2, [r3, #4]
                   (RCC_PLLCFGR_PLLSRC_HSE) | (PLL_Q << 24);

    /* Enable the main PLL */
    RCC->CR |= RCC_CR_PLLON;
 800085a:	f44f 5360 	mov.w	r3, #14336	; 0x3800
 800085e:	f2c4 0302 	movt	r3, #16386	; 0x4002
 8000862:	f44f 5260 	mov.w	r2, #14336	; 0x3800
 8000866:	f2c4 0202 	movt	r2, #16386	; 0x4002
 800086a:	6812      	ldr	r2, [r2, #0]
 800086c:	f042 7280 	orr.w	r2, r2, #16777216	; 0x1000000
 8000870:	601a      	str	r2, [r3, #0]

    /* Wait till the main PLL is ready */
    while((RCC->CR & RCC_CR_PLLRDY) == 0)
 8000872:	bf00      	nop
 8000874:	f44f 5360 	mov.w	r3, #14336	; 0x3800
 8000878:	f2c4 0302 	movt	r3, #16386	; 0x4002
 800087c:	681b      	ldr	r3, [r3, #0]
 800087e:	f003 7300 	and.w	r3, r3, #33554432	; 0x2000000
 8000882:	2b00      	cmp	r3, #0
 8000884:	d0f6      	beq.n	8000874 <SetSysClock+0x118>
    {
    }
   
    /* Configure Flash prefetch, Instruction cache, Data cache and wait state */
    FLASH->ACR = FLASH_ACR_ICEN |FLASH_ACR_DCEN |FLASH_ACR_LATENCY_5WS;
 8000886:	f44f 5370 	mov.w	r3, #15360	; 0x3c00
 800088a:	f2c4 0302 	movt	r3, #16386	; 0x4002
 800088e:	f240 6205 	movw	r2, #1541	; 0x605
 8000892:	601a      	str	r2, [r3, #0]

    /* Select the main PLL as system clock source */
    RCC->CFGR &= (uint32_t)((uint32_t)~(RCC_CFGR_SW));
 8000894:	f44f 5360 	mov.w	r3, #14336	; 0x3800
 8000898:	f2c4 0302 	movt	r3, #16386	; 0x4002
 800089c:	f44f 5260 	mov.w	r2, #14336	; 0x3800
 80008a0:	f2c4 0202 	movt	r2, #16386	; 0x4002
 80008a4:	6892      	ldr	r2, [r2, #8]
 80008a6:	f022 0203 	bic.w	r2, r2, #3
 80008aa:	609a      	str	r2, [r3, #8]
    RCC->CFGR |= RCC_CFGR_SW_PLL;
 80008ac:	f44f 5360 	mov.w	r3, #14336	; 0x3800
 80008b0:	f2c4 0302 	movt	r3, #16386	; 0x4002
 80008b4:	f44f 5260 	mov.w	r2, #14336	; 0x3800
 80008b8:	f2c4 0202 	movt	r2, #16386	; 0x4002
 80008bc:	6892      	ldr	r2, [r2, #8]
 80008be:	f042 0202 	orr.w	r2, r2, #2
 80008c2:	609a      	str	r2, [r3, #8]

    /* Wait till the main PLL is used as system clock source */
    while ((RCC->CFGR & (uint32_t)RCC_CFGR_SWS ) != RCC_CFGR_SWS_PLL);
 80008c4:	bf00      	nop
 80008c6:	f44f 5360 	mov.w	r3, #14336	; 0x3800
 80008ca:	f2c4 0302 	movt	r3, #16386	; 0x4002
 80008ce:	689b      	ldr	r3, [r3, #8]
 80008d0:	f003 030c 	and.w	r3, r3, #12
 80008d4:	2b08      	cmp	r3, #8
 80008d6:	d1f6      	bne.n	80008c6 <SetSysClock+0x16a>
 80008d8:	e000      	b.n	80008dc <SetSysClock+0x180>
    }
  }
  else
  { /* If HSE fails to start-up, the application will have wrong clock
         configuration. User can add here some code to deal with this error */
       while(1){};
 80008da:	e7fe      	b.n	80008da <SetSysClock+0x17e>
  }
}
 80008dc:	f107 070c 	add.w	r7, r7, #12
 80008e0:	46bd      	mov	sp, r7
 80008e2:	bc80      	pop	{r7}
 80008e4:	4770      	bx	lr
 80008e6:	bf00      	nop

080008e8 <copy_vector_table_to_sram>:

static void copy_vector_table_to_sram(void)
{
 80008e8:	b480      	push	{r7}
 80008ea:	b083      	sub	sp, #12
 80008ec:	af00      	add	r7, sp, #0
    uint32_t* load = &__isr_vector_load;
 80008ee:	f240 0300 	movw	r3, #0
 80008f2:	f6c0 0300 	movt	r3, #2048	; 0x800
 80008f6:	607b      	str	r3, [r7, #4]
    uint32_t* data = &__isr_vector_start;
 80008f8:	f240 0300 	movw	r3, #0
 80008fc:	f2c2 0300 	movt	r3, #8192	; 0x2000
 8000900:	603b      	str	r3, [r7, #0]

    while(data < &__isr_vector_end){
 8000902:	e00b      	b.n	800091c <copy_vector_table_to_sram+0x34>
        *(data++) = *(load++);
 8000904:	687b      	ldr	r3, [r7, #4]
 8000906:	681a      	ldr	r2, [r3, #0]
 8000908:	683b      	ldr	r3, [r7, #0]
 800090a:	601a      	str	r2, [r3, #0]
 800090c:	683b      	ldr	r3, [r7, #0]
 800090e:	f103 0304 	add.w	r3, r3, #4
 8000912:	603b      	str	r3, [r7, #0]
 8000914:	687b      	ldr	r3, [r7, #4]
 8000916:	f103 0304 	add.w	r3, r3, #4
 800091a:	607b      	str	r3, [r7, #4]
static void copy_vector_table_to_sram(void)
{
    uint32_t* load = &__isr_vector_load;
    uint32_t* data = &__isr_vector_start;

    while(data < &__isr_vector_end){
 800091c:	683a      	ldr	r2, [r7, #0]
 800091e:	f240 1388 	movw	r3, #392	; 0x188
 8000922:	f2c2 0300 	movt	r3, #8192	; 0x2000
 8000926:	429a      	cmp	r2, r3
 8000928:	d3ec      	bcc.n	8000904 <copy_vector_table_to_sram+0x1c>
        *(data++) = *(load++);
    }
}
 800092a:	f107 070c 	add.w	r7, r7, #12
 800092e:	46bd      	mov	sp, r7
 8000930:	bc80      	pop	{r7}
 8000932:	4770      	bx	lr

08000934 <NMI_Handler>:
/******************************************************************************/
/*            Cortex-M4 Processor Exceptions Handlers                         */
/******************************************************************************/

void NMI_Handler(void)
{
 8000934:	b480      	push	{r7}
 8000936:	af00      	add	r7, sp, #0
}
 8000938:	46bd      	mov	sp, r7
 800093a:	bc80      	pop	{r7}
 800093c:	4770      	bx	lr
 800093e:	bf00      	nop

08000940 <HardFault_Handler>:

void HardFault_Handler(void)
{
 8000940:	b480      	push	{r7}
 8000942:	af00      	add	r7, sp, #0
  /* Go to infinite loop when Hard Fault exception occurs */
  while (1)
  {
  }
 8000944:	e7fe      	b.n	8000944 <HardFault_Handler+0x4>
 8000946:	bf00      	nop

08000948 <MemManage_Handler>:
}

void MemManage_Handler(void)
{
 8000948:	b480      	push	{r7}
 800094a:	af00      	add	r7, sp, #0
  /* Go to infinite loop when Memory Manage exception occurs */
  while (1)
  {
  }
 800094c:	e7fe      	b.n	800094c <MemManage_Handler+0x4>
 800094e:	bf00      	nop

08000950 <BusFault_Handler>:
}

void BusFault_Handler(void)
{
 8000950:	b480      	push	{r7}
 8000952:	af00      	add	r7, sp, #0
  /* Go to infinite loop when Bus Fault exception occurs */
  while (1)
  {
  }
 8000954:	e7fe      	b.n	8000954 <BusFault_Handler+0x4>
 8000956:	bf00      	nop

08000958 <UsageFault_Handler>:
}

void UsageFault_Handler(void)
{
 8000958:	b480      	push	{r7}
 800095a:	af00      	add	r7, sp, #0
  /* Go to infinite loop when Usage Fault exception occurs */
  while (1)
  {
  }
 800095c:	e7fe      	b.n	800095c <UsageFault_Handler+0x4>
 800095e:	bf00      	nop

08000960 <SVC_Handler>:
}

/* SVCall exception handler */
void SVC_Handler(void)
{
 8000960:	b480      	push	{r7}
 8000962:	af00      	add	r7, sp, #0
}
 8000964:	46bd      	mov	sp, r7
 8000966:	bc80      	pop	{r7}
 8000968:	4770      	bx	lr
 800096a:	bf00      	nop

0800096c <DebugMon_Handler>:

void DebugMon_Handler(void)
{
 800096c:	b480      	push	{r7}
 800096e:	af00      	add	r7, sp, #0
}
 8000970:	46bd      	mov	sp, r7
 8000972:	bc80      	pop	{r7}
 8000974:	4770      	bx	lr
 8000976:	bf00      	nop

08000978 <PendSV_Handler>:

/* PendSVC exception handler */
void PendSV_Handler(void)
{
 8000978:	b480      	push	{r7}
 800097a:	af00      	add	r7, sp, #0
}
 800097c:	46bd      	mov	sp, r7
 800097e:	bc80      	pop	{r7}
 8000980:	4770      	bx	lr
 8000982:	bf00      	nop

08000984 <SysTick_Handler>:

/* SysTick Handler */
void SysTick_Handler(void)
{
 8000984:	b480      	push	{r7}
 8000986:	af00      	add	r7, sp, #0
  __stm32_tick++;
 8000988:	f240 13ac 	movw	r3, #428	; 0x1ac
 800098c:	f2c2 0300 	movt	r3, #8192	; 0x2000
 8000990:	681b      	ldr	r3, [r3, #0]
 8000992:	f103 0201 	add.w	r2, r3, #1
 8000996:	f240 13ac 	movw	r3, #428	; 0x1ac
 800099a:	f2c2 0300 	movt	r3, #8192	; 0x2000
 800099e:	601a      	str	r2, [r3, #0]
}
 80009a0:	46bd      	mov	sp, r7
 80009a2:	bc80      	pop	{r7}
 80009a4:	4770      	bx	lr
 80009a6:	bf00      	nop

080009a8 <RCC_DeInit>:
  *            - LSI, LSE and RTC clocks 
  * @param  None
  * @retval None
  */
void RCC_DeInit(void)
{
 80009a8:	b480      	push	{r7}
 80009aa:	af00      	add	r7, sp, #0
  /* Set HSION bit */
  RCC->CR |= (uint32_t)0x00000001;
 80009ac:	f44f 5360 	mov.w	r3, #14336	; 0x3800
 80009b0:	f2c4 0302 	movt	r3, #16386	; 0x4002
 80009b4:	f44f 5260 	mov.w	r2, #14336	; 0x3800
 80009b8:	f2c4 0202 	movt	r2, #16386	; 0x4002
 80009bc:	6812      	ldr	r2, [r2, #0]
 80009be:	f042 0201 	orr.w	r2, r2, #1
 80009c2:	601a      	str	r2, [r3, #0]

  /* Reset CFGR register */
  RCC->CFGR = 0x00000000;
 80009c4:	f44f 5360 	mov.w	r3, #14336	; 0x3800
 80009c8:	f2c4 0302 	movt	r3, #16386	; 0x4002
 80009cc:	f04f 0200 	mov.w	r2, #0
 80009d0:	609a      	str	r2, [r3, #8]

  /* Reset HSEON, CSSON and PLLON bits */
  RCC->CR &= (uint32_t)0xFEF6FFFF;
 80009d2:	f44f 5360 	mov.w	r3, #14336	; 0x3800
 80009d6:	f2c4 0302 	movt	r3, #16386	; 0x4002
 80009da:	f44f 5260 	mov.w	r2, #14336	; 0x3800
 80009de:	f2c4 0202 	movt	r2, #16386	; 0x4002
 80009e2:	6812      	ldr	r2, [r2, #0]
 80009e4:	f022 7284 	bic.w	r2, r2, #17301504	; 0x1080000
 80009e8:	f422 3280 	bic.w	r2, r2, #65536	; 0x10000
 80009ec:	601a      	str	r2, [r3, #0]

  /* Reset PLLCFGR register */
  RCC->PLLCFGR = 0x24003010;
 80009ee:	f44f 5360 	mov.w	r3, #14336	; 0x3800
 80009f2:	f2c4 0302 	movt	r3, #16386	; 0x4002
 80009f6:	f243 0210 	movw	r2, #12304	; 0x3010
 80009fa:	f2c2 4200 	movt	r2, #9216	; 0x2400
 80009fe:	605a      	str	r2, [r3, #4]

  /* Reset HSEBYP bit */
  RCC->CR &= (uint32_t)0xFFFBFFFF;
 8000a00:	f44f 5360 	mov.w	r3, #14336	; 0x3800
 8000a04:	f2c4 0302 	movt	r3, #16386	; 0x4002
 8000a08:	f44f 5260 	mov.w	r2, #14336	; 0x3800
 8000a0c:	f2c4 0202 	movt	r2, #16386	; 0x4002
 8000a10:	6812      	ldr	r2, [r2, #0]
 8000a12:	f422 2280 	bic.w	r2, r2, #262144	; 0x40000
 8000a16:	601a      	str	r2, [r3, #0]

  /* Disable all interrupts */
  RCC->CIR = 0x00000000;
 8000a18:	f44f 5360 	mov.w	r3, #14336	; 0x3800
 8000a1c:	f2c4 0302 	movt	r3, #16386	; 0x4002
 8000a20:	f04f 0200 	mov.w	r2, #0
 8000a24:	60da      	str	r2, [r3, #12]
}
 8000a26:	46bd      	mov	sp, r7
 8000a28:	bc80      	pop	{r7}
 8000a2a:	4770      	bx	lr

08000a2c <RCC_HSEConfig>:
  *            @arg RCC_HSE_ON: turn ON the HSE oscillator
  *            @arg RCC_HSE_Bypass: HSE oscillator bypassed with external clock
  * @retval None
  */
void RCC_HSEConfig(uint8_t RCC_HSE)
{
 8000a2c:	b480      	push	{r7}
 8000a2e:	b083      	sub	sp, #12
 8000a30:	af00      	add	r7, sp, #0
 8000a32:	4603      	mov	r3, r0
 8000a34:	71fb      	strb	r3, [r7, #7]
  /* Check the parameters */
  assert_param(IS_RCC_HSE(RCC_HSE));

  /* Reset HSEON and HSEBYP bits before configuring the HSE ------------------*/
  *(__IO uint8_t *) CR_BYTE3_ADDRESS = RCC_HSE_OFF;
 8000a36:	f643 0302 	movw	r3, #14338	; 0x3802
 8000a3a:	f2c4 0302 	movt	r3, #16386	; 0x4002
 8000a3e:	f04f 0200 	mov.w	r2, #0
 8000a42:	701a      	strb	r2, [r3, #0]

  /* Set the new HSE configuration -------------------------------------------*/
  *(__IO uint8_t *) CR_BYTE3_ADDRESS = RCC_HSE;
 8000a44:	f643 0302 	movw	r3, #14338	; 0x3802
 8000a48:	f2c4 0302 	movt	r3, #16386	; 0x4002
 8000a4c:	79fa      	ldrb	r2, [r7, #7]
 8000a4e:	701a      	strb	r2, [r3, #0]
}
 8000a50:	f107 070c 	add.w	r7, r7, #12
 8000a54:	46bd      	mov	sp, r7
 8000a56:	bc80      	pop	{r7}
 8000a58:	4770      	bx	lr
 8000a5a:	bf00      	nop

08000a5c <RCC_WaitForHSEStartUp>:
  * @retval An ErrorStatus enumeration value:
  *          - SUCCESS: HSE oscillator is stable and ready to use
  *          - ERROR: HSE oscillator not yet ready
  */
ErrorStatus RCC_WaitForHSEStartUp(void)
{
 8000a5c:	b580      	push	{r7, lr}
 8000a5e:	b082      	sub	sp, #8
 8000a60:	af00      	add	r7, sp, #0
  __IO uint32_t startupcounter = 0;
 8000a62:	f04f 0300 	mov.w	r3, #0
 8000a66:	603b      	str	r3, [r7, #0]
  ErrorStatus status = ERROR;
 8000a68:	f04f 0300 	mov.w	r3, #0
 8000a6c:	71fb      	strb	r3, [r7, #7]
  FlagStatus hsestatus = RESET;
 8000a6e:	f04f 0300 	mov.w	r3, #0
 8000a72:	71bb      	strb	r3, [r7, #6]
  /* Wait till HSE is ready and if Time out is reached exit */
  do
  {
    hsestatus = RCC_GetFlagStatus(RCC_FLAG_HSERDY);
 8000a74:	f04f 0031 	mov.w	r0, #49	; 0x31
 8000a78:	f000 fdd2 	bl	8001620 <RCC_GetFlagStatus>
 8000a7c:	4603      	mov	r3, r0
 8000a7e:	71bb      	strb	r3, [r7, #6]
    startupcounter++;
 8000a80:	683b      	ldr	r3, [r7, #0]
 8000a82:	f103 0301 	add.w	r3, r3, #1
 8000a86:	603b      	str	r3, [r7, #0]
  } while((startupcounter != HSE_STARTUP_TIMEOUT) && (hsestatus == RESET));
 8000a88:	683b      	ldr	r3, [r7, #0]
 8000a8a:	f5b3 6fa0 	cmp.w	r3, #1280	; 0x500
 8000a8e:	d002      	beq.n	8000a96 <RCC_WaitForHSEStartUp+0x3a>
 8000a90:	79bb      	ldrb	r3, [r7, #6]
 8000a92:	2b00      	cmp	r3, #0
 8000a94:	d0ee      	beq.n	8000a74 <RCC_WaitForHSEStartUp+0x18>

  if (RCC_GetFlagStatus(RCC_FLAG_HSERDY) != RESET)
 8000a96:	f04f 0031 	mov.w	r0, #49	; 0x31
 8000a9a:	f000 fdc1 	bl	8001620 <RCC_GetFlagStatus>
 8000a9e:	4603      	mov	r3, r0
 8000aa0:	2b00      	cmp	r3, #0
 8000aa2:	d003      	beq.n	8000aac <RCC_WaitForHSEStartUp+0x50>
  {
    status = SUCCESS;
 8000aa4:	f04f 0301 	mov.w	r3, #1
 8000aa8:	71fb      	strb	r3, [r7, #7]
 8000aaa:	e002      	b.n	8000ab2 <RCC_WaitForHSEStartUp+0x56>
  }
  else
  {
    status = ERROR;
 8000aac:	f04f 0300 	mov.w	r3, #0
 8000ab0:	71fb      	strb	r3, [r7, #7]
  }
  return (status);
 8000ab2:	79fb      	ldrb	r3, [r7, #7]
}
 8000ab4:	4618      	mov	r0, r3
 8000ab6:	f107 0708 	add.w	r7, r7, #8
 8000aba:	46bd      	mov	sp, r7
 8000abc:	bd80      	pop	{r7, pc}
 8000abe:	bf00      	nop

08000ac0 <RCC_AdjustHSICalibrationValue>:
  * @param  HSICalibrationValue: specifies the calibration trimming value.
  *         This parameter must be a number between 0 and 0x1F.
  * @retval None
  */
void RCC_AdjustHSICalibrationValue(uint8_t HSICalibrationValue)
{
 8000ac0:	b480      	push	{r7}
 8000ac2:	b085      	sub	sp, #20
 8000ac4:	af00      	add	r7, sp, #0
 8000ac6:	4603      	mov	r3, r0
 8000ac8:	71fb      	strb	r3, [r7, #7]
  uint32_t tmpreg = 0;
 8000aca:	f04f 0300 	mov.w	r3, #0
 8000ace:	60fb      	str	r3, [r7, #12]
  /* Check the parameters */
  assert_param(IS_RCC_CALIBRATION_VALUE(HSICalibrationValue));

  tmpreg = RCC->CR;
 8000ad0:	f44f 5360 	mov.w	r3, #14336	; 0x3800
 8000ad4:	f2c4 0302 	movt	r3, #16386	; 0x4002
 8000ad8:	681b      	ldr	r3, [r3, #0]
 8000ada:	60fb      	str	r3, [r7, #12]

  /* Clear HSITRIM[4:0] bits */
  tmpreg &= ~RCC_CR_HSITRIM;
 8000adc:	68fb      	ldr	r3, [r7, #12]
 8000ade:	f023 03f8 	bic.w	r3, r3, #248	; 0xf8
 8000ae2:	60fb      	str	r3, [r7, #12]

  /* Set the HSITRIM[4:0] bits according to HSICalibrationValue value */
  tmpreg |= (uint32_t)HSICalibrationValue << 3;
 8000ae4:	79fb      	ldrb	r3, [r7, #7]
 8000ae6:	ea4f 03c3 	mov.w	r3, r3, lsl #3
 8000aea:	68fa      	ldr	r2, [r7, #12]
 8000aec:	4313      	orrs	r3, r2
 8000aee:	60fb      	str	r3, [r7, #12]

  /* Store the new value */
  RCC->CR = tmpreg;
 8000af0:	f44f 5360 	mov.w	r3, #14336	; 0x3800
 8000af4:	f2c4 0302 	movt	r3, #16386	; 0x4002
 8000af8:	68fa      	ldr	r2, [r7, #12]
 8000afa:	601a      	str	r2, [r3, #0]
}
 8000afc:	f107 0714 	add.w	r7, r7, #20
 8000b00:	46bd      	mov	sp, r7
 8000b02:	bc80      	pop	{r7}
 8000b04:	4770      	bx	lr
 8000b06:	bf00      	nop

08000b08 <RCC_HSICmd>:
  * @note   When the HSI is stopped, HSIRDY flag goes low after 6 HSI oscillator
  *         clock cycles.  
  * @retval None
  */
void RCC_HSICmd(FunctionalState NewState)
{
 8000b08:	b480      	push	{r7}
 8000b0a:	b083      	sub	sp, #12
 8000b0c:	af00      	add	r7, sp, #0
 8000b0e:	4603      	mov	r3, r0
 8000b10:	71fb      	strb	r3, [r7, #7]
  /* Check the parameters */
  assert_param(IS_FUNCTIONAL_STATE(NewState));

  *(__IO uint32_t *) CR_HSION_BB = (uint32_t)NewState;
 8000b12:	f04f 0300 	mov.w	r3, #0
 8000b16:	f2c4 2347 	movt	r3, #16967	; 0x4247
 8000b1a:	79fa      	ldrb	r2, [r7, #7]
 8000b1c:	601a      	str	r2, [r3, #0]
}
 8000b1e:	f107 070c 	add.w	r7, r7, #12
 8000b22:	46bd      	mov	sp, r7
 8000b24:	bc80      	pop	{r7}
 8000b26:	4770      	bx	lr

08000b28 <RCC_LSEConfig>:
  *            @arg RCC_LSE_ON: turn ON the LSE oscillator
  *            @arg RCC_LSE_Bypass: LSE oscillator bypassed with external clock
  * @retval None
  */
void RCC_LSEConfig(uint8_t RCC_LSE)
{
 8000b28:	b480      	push	{r7}
 8000b2a:	b083      	sub	sp, #12
 8000b2c:	af00      	add	r7, sp, #0
 8000b2e:	4603      	mov	r3, r0
 8000b30:	71fb      	strb	r3, [r7, #7]
  /* Check the parameters */
  assert_param(IS_RCC_LSE(RCC_LSE));

  /* Reset LSEON and LSEBYP bits before configuring the LSE ------------------*/
  /* Reset LSEON bit */
  *(__IO uint8_t *) BDCR_ADDRESS = RCC_LSE_OFF;
 8000b32:	f643 0370 	movw	r3, #14448	; 0x3870
 8000b36:	f2c4 0302 	movt	r3, #16386	; 0x4002
 8000b3a:	f04f 0200 	mov.w	r2, #0
 8000b3e:	701a      	strb	r2, [r3, #0]

  /* Reset LSEBYP bit */
  *(__IO uint8_t *) BDCR_ADDRESS = RCC_LSE_OFF;
 8000b40:	f643 0370 	movw	r3, #14448	; 0x3870
 8000b44:	f2c4 0302 	movt	r3, #16386	; 0x4002
 8000b48:	f04f 0200 	mov.w	r2, #0
 8000b4c:	701a      	strb	r2, [r3, #0]

  /* Configure LSE (RCC_LSE_OFF is already covered by the code section above) */
  switch (RCC_LSE)
 8000b4e:	79fb      	ldrb	r3, [r7, #7]
 8000b50:	2b01      	cmp	r3, #1
 8000b52:	d002      	beq.n	8000b5a <RCC_LSEConfig+0x32>
 8000b54:	2b04      	cmp	r3, #4
 8000b56:	d008      	beq.n	8000b6a <RCC_LSEConfig+0x42>
 8000b58:	e00f      	b.n	8000b7a <RCC_LSEConfig+0x52>
  {
    case RCC_LSE_ON:
      /* Set LSEON bit */
      *(__IO uint8_t *) BDCR_ADDRESS = RCC_LSE_ON;
 8000b5a:	f643 0370 	movw	r3, #14448	; 0x3870
 8000b5e:	f2c4 0302 	movt	r3, #16386	; 0x4002
 8000b62:	f04f 0201 	mov.w	r2, #1
 8000b66:	701a      	strb	r2, [r3, #0]
      break;
 8000b68:	e008      	b.n	8000b7c <RCC_LSEConfig+0x54>
    case RCC_LSE_Bypass:
      /* Set LSEBYP and LSEON bits */
      *(__IO uint8_t *) BDCR_ADDRESS = RCC_LSE_Bypass | RCC_LSE_ON;
 8000b6a:	f643 0370 	movw	r3, #14448	; 0x3870
 8000b6e:	f2c4 0302 	movt	r3, #16386	; 0x4002
 8000b72:	f04f 0205 	mov.w	r2, #5
 8000b76:	701a      	strb	r2, [r3, #0]
      break;
 8000b78:	e000      	b.n	8000b7c <RCC_LSEConfig+0x54>
    default:
      break;
 8000b7a:	bf00      	nop
  }
}
 8000b7c:	f107 070c 	add.w	r7, r7, #12
 8000b80:	46bd      	mov	sp, r7
 8000b82:	bc80      	pop	{r7}
 8000b84:	4770      	bx	lr
 8000b86:	bf00      	nop

08000b88 <RCC_LSICmd>:
  * @note   When the LSI is stopped, LSIRDY flag goes low after 6 LSI oscillator
  *         clock cycles. 
  * @retval None
  */
void RCC_LSICmd(FunctionalState NewState)
{
 8000b88:	b480      	push	{r7}
 8000b8a:	b083      	sub	sp, #12
 8000b8c:	af00      	add	r7, sp, #0
 8000b8e:	4603      	mov	r3, r0
 8000b90:	71fb      	strb	r3, [r7, #7]
  /* Check the parameters */
  assert_param(IS_FUNCTIONAL_STATE(NewState));

  *(__IO uint32_t *) CSR_LSION_BB = (uint32_t)NewState;
 8000b92:	f44f 6368 	mov.w	r3, #3712	; 0xe80
 8000b96:	f2c4 2347 	movt	r3, #16967	; 0x4247
 8000b9a:	79fa      	ldrb	r2, [r7, #7]
 8000b9c:	601a      	str	r2, [r3, #0]
}
 8000b9e:	f107 070c 	add.w	r7, r7, #12
 8000ba2:	46bd      	mov	sp, r7
 8000ba4:	bc80      	pop	{r7}
 8000ba6:	4770      	bx	lr

08000ba8 <RCC_PLLConfig>:
  *         correctly.
  *   
  * @retval None
  */
void RCC_PLLConfig(uint32_t RCC_PLLSource, uint32_t PLLM, uint32_t PLLN, uint32_t PLLP, uint32_t PLLQ)
{
 8000ba8:	b480      	push	{r7}
 8000baa:	b085      	sub	sp, #20
 8000bac:	af00      	add	r7, sp, #0
 8000bae:	60f8      	str	r0, [r7, #12]
 8000bb0:	60b9      	str	r1, [r7, #8]
 8000bb2:	607a      	str	r2, [r7, #4]
 8000bb4:	603b      	str	r3, [r7, #0]
  assert_param(IS_RCC_PLLM_VALUE(PLLM));
  assert_param(IS_RCC_PLLN_VALUE(PLLN));
  assert_param(IS_RCC_PLLP_VALUE(PLLP));
  assert_param(IS_RCC_PLLQ_VALUE(PLLQ));

  RCC->PLLCFGR = PLLM | (PLLN << 6) | (((PLLP >> 1) -1) << 16) | (RCC_PLLSource) |
 8000bb6:	f44f 5360 	mov.w	r3, #14336	; 0x3800
 8000bba:	f2c4 0302 	movt	r3, #16386	; 0x4002
 8000bbe:	687a      	ldr	r2, [r7, #4]
 8000bc0:	ea4f 1182 	mov.w	r1, r2, lsl #6
 8000bc4:	68ba      	ldr	r2, [r7, #8]
 8000bc6:	4311      	orrs	r1, r2
 8000bc8:	683a      	ldr	r2, [r7, #0]
 8000bca:	ea4f 0252 	mov.w	r2, r2, lsr #1
 8000bce:	f102 32ff 	add.w	r2, r2, #4294967295
 8000bd2:	ea4f 4202 	mov.w	r2, r2, lsl #16
 8000bd6:	4311      	orrs	r1, r2
 8000bd8:	68fa      	ldr	r2, [r7, #12]
 8000bda:	4311      	orrs	r1, r2
                 (PLLQ << 24);
 8000bdc:	69ba      	ldr	r2, [r7, #24]
 8000bde:	ea4f 6202 	mov.w	r2, r2, lsl #24
  assert_param(IS_RCC_PLLM_VALUE(PLLM));
  assert_param(IS_RCC_PLLN_VALUE(PLLN));
  assert_param(IS_RCC_PLLP_VALUE(PLLP));
  assert_param(IS_RCC_PLLQ_VALUE(PLLQ));

  RCC->PLLCFGR = PLLM | (PLLN << 6) | (((PLLP >> 1) -1) << 16) | (RCC_PLLSource) |
 8000be2:	430a      	orrs	r2, r1
 8000be4:	605a      	str	r2, [r3, #4]
                 (PLLQ << 24);
}
 8000be6:	f107 0714 	add.w	r7, r7, #20
 8000bea:	46bd      	mov	sp, r7
 8000bec:	bc80      	pop	{r7}
 8000bee:	4770      	bx	lr

08000bf0 <RCC_PLLCmd>:
  * @note   The main PLL is disabled by hardware when entering STOP and STANDBY modes.
  * @param  NewState: new state of the main PLL. This parameter can be: ENABLE or DISABLE.
  * @retval None
  */
void RCC_PLLCmd(FunctionalState NewState)
{
 8000bf0:	b480      	push	{r7}
 8000bf2:	b083      	sub	sp, #12
 8000bf4:	af00      	add	r7, sp, #0
 8000bf6:	4603      	mov	r3, r0
 8000bf8:	71fb      	strb	r3, [r7, #7]
  /* Check the parameters */
  assert_param(IS_FUNCTIONAL_STATE(NewState));
  *(__IO uint32_t *) CR_PLLON_BB = (uint32_t)NewState;
 8000bfa:	f04f 0360 	mov.w	r3, #96	; 0x60
 8000bfe:	f2c4 2347 	movt	r3, #16967	; 0x4247
 8000c02:	79fa      	ldrb	r2, [r7, #7]
 8000c04:	601a      	str	r2, [r3, #0]
}
 8000c06:	f107 070c 	add.w	r7, r7, #12
 8000c0a:	46bd      	mov	sp, r7
 8000c0c:	bc80      	pop	{r7}
 8000c0e:	4770      	bx	lr

08000c10 <RCC_PLLI2SConfig>:
  *         on the I2S clock frequency.
  *   
  * @retval None
  */
void RCC_PLLI2SConfig(uint32_t PLLI2SN, uint32_t PLLI2SR)
{
 8000c10:	b480      	push	{r7}
 8000c12:	b083      	sub	sp, #12
 8000c14:	af00      	add	r7, sp, #0
 8000c16:	6078      	str	r0, [r7, #4]
 8000c18:	6039      	str	r1, [r7, #0]
  /* Check the parameters */
  assert_param(IS_RCC_PLLI2SN_VALUE(PLLI2SN));
  assert_param(IS_RCC_PLLI2SR_VALUE(PLLI2SR));

  RCC->PLLI2SCFGR = (PLLI2SN << 6) | (PLLI2SR << 28);
 8000c1a:	f44f 5360 	mov.w	r3, #14336	; 0x3800
 8000c1e:	f2c4 0302 	movt	r3, #16386	; 0x4002
 8000c22:	687a      	ldr	r2, [r7, #4]
 8000c24:	ea4f 1182 	mov.w	r1, r2, lsl #6
 8000c28:	683a      	ldr	r2, [r7, #0]
 8000c2a:	ea4f 7202 	mov.w	r2, r2, lsl #28
 8000c2e:	430a      	orrs	r2, r1
 8000c30:	f8c3 2084 	str.w	r2, [r3, #132]	; 0x84
}
 8000c34:	f107 070c 	add.w	r7, r7, #12
 8000c38:	46bd      	mov	sp, r7
 8000c3a:	bc80      	pop	{r7}
 8000c3c:	4770      	bx	lr
 8000c3e:	bf00      	nop

08000c40 <RCC_PLLI2SCmd>:
  * @note   The PLLI2S is disabled by hardware when entering STOP and STANDBY modes.  
  * @param  NewState: new state of the PLLI2S. This parameter can be: ENABLE or DISABLE.
  * @retval None
  */
void RCC_PLLI2SCmd(FunctionalState NewState)
{
 8000c40:	b480      	push	{r7}
 8000c42:	b083      	sub	sp, #12
 8000c44:	af00      	add	r7, sp, #0
 8000c46:	4603      	mov	r3, r0
 8000c48:	71fb      	strb	r3, [r7, #7]
  /* Check the parameters */
  assert_param(IS_FUNCTIONAL_STATE(NewState));
  *(__IO uint32_t *) CR_PLLI2SON_BB = (uint32_t)NewState;
 8000c4a:	f04f 0368 	mov.w	r3, #104	; 0x68
 8000c4e:	f2c4 2347 	movt	r3, #16967	; 0x4247
 8000c52:	79fa      	ldrb	r2, [r7, #7]
 8000c54:	601a      	str	r2, [r3, #0]
}
 8000c56:	f107 070c 	add.w	r7, r7, #12
 8000c5a:	46bd      	mov	sp, r7
 8000c5c:	bc80      	pop	{r7}
 8000c5e:	4770      	bx	lr

08000c60 <RCC_ClockSecuritySystemCmd>:
  * @param  NewState: new state of the Clock Security System.
  *         This parameter can be: ENABLE or DISABLE.
  * @retval None
  */
void RCC_ClockSecuritySystemCmd(FunctionalState NewState)
{
 8000c60:	b480      	push	{r7}
 8000c62:	b083      	sub	sp, #12
 8000c64:	af00      	add	r7, sp, #0
 8000c66:	4603      	mov	r3, r0
 8000c68:	71fb      	strb	r3, [r7, #7]
  /* Check the parameters */
  assert_param(IS_FUNCTIONAL_STATE(NewState));
  *(__IO uint32_t *) CR_CSSON_BB = (uint32_t)NewState;
 8000c6a:	f04f 034c 	mov.w	r3, #76	; 0x4c
 8000c6e:	f2c4 2347 	movt	r3, #16967	; 0x4247
 8000c72:	79fa      	ldrb	r2, [r7, #7]
 8000c74:	601a      	str	r2, [r3, #0]
}
 8000c76:	f107 070c 	add.w	r7, r7, #12
 8000c7a:	46bd      	mov	sp, r7
 8000c7c:	bc80      	pop	{r7}
 8000c7e:	4770      	bx	lr

08000c80 <RCC_MCO1Config>:
  *            @arg RCC_MCO1Div_4: division by 4 applied to MCO1 clock
  *            @arg RCC_MCO1Div_5: division by 5 applied to MCO1 clock
  * @retval None
  */
void RCC_MCO1Config(uint32_t RCC_MCO1Source, uint32_t RCC_MCO1Div)
{
 8000c80:	b480      	push	{r7}
 8000c82:	b085      	sub	sp, #20
 8000c84:	af00      	add	r7, sp, #0
 8000c86:	6078      	str	r0, [r7, #4]
 8000c88:	6039      	str	r1, [r7, #0]
  uint32_t tmpreg = 0;
 8000c8a:	f04f 0300 	mov.w	r3, #0
 8000c8e:	60fb      	str	r3, [r7, #12]
  
  /* Check the parameters */
  assert_param(IS_RCC_MCO1SOURCE(RCC_MCO1Source));
  assert_param(IS_RCC_MCO1DIV(RCC_MCO1Div));  

  tmpreg = RCC->CFGR;
 8000c90:	f44f 5360 	mov.w	r3, #14336	; 0x3800
 8000c94:	f2c4 0302 	movt	r3, #16386	; 0x4002
 8000c98:	689b      	ldr	r3, [r3, #8]
 8000c9a:	60fb      	str	r3, [r7, #12]

  /* Clear MCO1[1:0] and MCO1PRE[2:0] bits */
  tmpreg &= CFGR_MCO1_RESET_MASK;
 8000c9c:	68fb      	ldr	r3, [r7, #12]
 8000c9e:	f023 63ec 	bic.w	r3, r3, #123731968	; 0x7600000
 8000ca2:	60fb      	str	r3, [r7, #12]

  /* Select MCO1 clock source and prescaler */
  tmpreg |= RCC_MCO1Source | RCC_MCO1Div;
 8000ca4:	687a      	ldr	r2, [r7, #4]
 8000ca6:	683b      	ldr	r3, [r7, #0]
 8000ca8:	4313      	orrs	r3, r2
 8000caa:	68fa      	ldr	r2, [r7, #12]
 8000cac:	4313      	orrs	r3, r2
 8000cae:	60fb      	str	r3, [r7, #12]

  /* Store the new value */
  RCC->CFGR = tmpreg;  
 8000cb0:	f44f 5360 	mov.w	r3, #14336	; 0x3800
 8000cb4:	f2c4 0302 	movt	r3, #16386	; 0x4002
 8000cb8:	68fa      	ldr	r2, [r7, #12]
 8000cba:	609a      	str	r2, [r3, #8]
}
 8000cbc:	f107 0714 	add.w	r7, r7, #20
 8000cc0:	46bd      	mov	sp, r7
 8000cc2:	bc80      	pop	{r7}
 8000cc4:	4770      	bx	lr
 8000cc6:	bf00      	nop

08000cc8 <RCC_MCO2Config>:
  *            @arg RCC_MCO2Div_4: division by 4 applied to MCO2 clock
  *            @arg RCC_MCO2Div_5: division by 5 applied to MCO2 clock
  * @retval None
  */
void RCC_MCO2Config(uint32_t RCC_MCO2Source, uint32_t RCC_MCO2Div)
{
 8000cc8:	b480      	push	{r7}
 8000cca:	b085      	sub	sp, #20
 8000ccc:	af00      	add	r7, sp, #0
 8000cce:	6078      	str	r0, [r7, #4]
 8000cd0:	6039      	str	r1, [r7, #0]
  uint32_t tmpreg = 0;
 8000cd2:	f04f 0300 	mov.w	r3, #0
 8000cd6:	60fb      	str	r3, [r7, #12]
  
  /* Check the parameters */
  assert_param(IS_RCC_MCO2SOURCE(RCC_MCO2Source));
  assert_param(IS_RCC_MCO2DIV(RCC_MCO2Div));
  
  tmpreg = RCC->CFGR;
 8000cd8:	f44f 5360 	mov.w	r3, #14336	; 0x3800
 8000cdc:	f2c4 0302 	movt	r3, #16386	; 0x4002
 8000ce0:	689b      	ldr	r3, [r3, #8]
 8000ce2:	60fb      	str	r3, [r7, #12]
  
  /* Clear MCO2 and MCO2PRE[2:0] bits */
  tmpreg &= CFGR_MCO2_RESET_MASK;
 8000ce4:	68fb      	ldr	r3, [r7, #12]
 8000ce6:	f023 4378 	bic.w	r3, r3, #4160749568	; 0xf8000000
 8000cea:	60fb      	str	r3, [r7, #12]

  /* Select MCO2 clock source and prescaler */
  tmpreg |= RCC_MCO2Source | RCC_MCO2Div;
 8000cec:	687a      	ldr	r2, [r7, #4]
 8000cee:	683b      	ldr	r3, [r7, #0]
 8000cf0:	4313      	orrs	r3, r2
 8000cf2:	68fa      	ldr	r2, [r7, #12]
 8000cf4:	4313      	orrs	r3, r2
 8000cf6:	60fb      	str	r3, [r7, #12]

  /* Store the new value */
  RCC->CFGR = tmpreg;  
 8000cf8:	f44f 5360 	mov.w	r3, #14336	; 0x3800
 8000cfc:	f2c4 0302 	movt	r3, #16386	; 0x4002
 8000d00:	68fa      	ldr	r2, [r7, #12]
 8000d02:	609a      	str	r2, [r3, #8]
}
 8000d04:	f107 0714 	add.w	r7, r7, #20
 8000d08:	46bd      	mov	sp, r7
 8000d0a:	bc80      	pop	{r7}
 8000d0c:	4770      	bx	lr
 8000d0e:	bf00      	nop

08000d10 <RCC_SYSCLKConfig>:
  *            @arg RCC_SYSCLKSource_HSE:    HSE selected as system clock source
  *            @arg RCC_SYSCLKSource_PLLCLK: PLL selected as system clock source
  * @retval None
  */
void RCC_SYSCLKConfig(uint32_t RCC_SYSCLKSource)
{
 8000d10:	b480      	push	{r7}
 8000d12:	b085      	sub	sp, #20
 8000d14:	af00      	add	r7, sp, #0
 8000d16:	6078      	str	r0, [r7, #4]
  uint32_t tmpreg = 0;
 8000d18:	f04f 0300 	mov.w	r3, #0
 8000d1c:	60fb      	str	r3, [r7, #12]

  /* Check the parameters */
  assert_param(IS_RCC_SYSCLK_SOURCE(RCC_SYSCLKSource));

  tmpreg = RCC->CFGR;
 8000d1e:	f44f 5360 	mov.w	r3, #14336	; 0x3800
 8000d22:	f2c4 0302 	movt	r3, #16386	; 0x4002
 8000d26:	689b      	ldr	r3, [r3, #8]
 8000d28:	60fb      	str	r3, [r7, #12]

  /* Clear SW[1:0] bits */
  tmpreg &= ~RCC_CFGR_SW;
 8000d2a:	68fb      	ldr	r3, [r7, #12]
 8000d2c:	f023 0303 	bic.w	r3, r3, #3
 8000d30:	60fb      	str	r3, [r7, #12]

  /* Set SW[1:0] bits according to RCC_SYSCLKSource value */
  tmpreg |= RCC_SYSCLKSource;
 8000d32:	68fa      	ldr	r2, [r7, #12]
 8000d34:	687b      	ldr	r3, [r7, #4]
 8000d36:	4313      	orrs	r3, r2
 8000d38:	60fb      	str	r3, [r7, #12]

  /* Store the new value */
  RCC->CFGR = tmpreg;
 8000d3a:	f44f 5360 	mov.w	r3, #14336	; 0x3800
 8000d3e:	f2c4 0302 	movt	r3, #16386	; 0x4002
 8000d42:	68fa      	ldr	r2, [r7, #12]
 8000d44:	609a      	str	r2, [r3, #8]
}
 8000d46:	f107 0714 	add.w	r7, r7, #20
 8000d4a:	46bd      	mov	sp, r7
 8000d4c:	bc80      	pop	{r7}
 8000d4e:	4770      	bx	lr

08000d50 <RCC_GetSYSCLKSource>:
  *              - 0x00: HSI used as system clock
  *              - 0x04: HSE used as system clock
  *              - 0x08: PLL used as system clock
  */
uint8_t RCC_GetSYSCLKSource(void)
{
 8000d50:	b480      	push	{r7}
 8000d52:	af00      	add	r7, sp, #0
  return ((uint8_t)(RCC->CFGR & RCC_CFGR_SWS));
 8000d54:	f44f 5360 	mov.w	r3, #14336	; 0x3800
 8000d58:	f2c4 0302 	movt	r3, #16386	; 0x4002
 8000d5c:	689b      	ldr	r3, [r3, #8]
 8000d5e:	b2db      	uxtb	r3, r3
 8000d60:	f003 030c 	and.w	r3, r3, #12
 8000d64:	b2db      	uxtb	r3, r3
}
 8000d66:	4618      	mov	r0, r3
 8000d68:	46bd      	mov	sp, r7
 8000d6a:	bc80      	pop	{r7}
 8000d6c:	4770      	bx	lr
 8000d6e:	bf00      	nop

08000d70 <RCC_HCLKConfig>:
  *            @arg RCC_SYSCLK_Div256: AHB clock = SYSCLK/256
  *            @arg RCC_SYSCLK_Div512: AHB clock = SYSCLK/512
  * @retval None
  */
void RCC_HCLKConfig(uint32_t RCC_SYSCLK)
{
 8000d70:	b480      	push	{r7}
 8000d72:	b085      	sub	sp, #20
 8000d74:	af00      	add	r7, sp, #0
 8000d76:	6078      	str	r0, [r7, #4]
  uint32_t tmpreg = 0;
 8000d78:	f04f 0300 	mov.w	r3, #0
 8000d7c:	60fb      	str	r3, [r7, #12]
  
  /* Check the parameters */
  assert_param(IS_RCC_HCLK(RCC_SYSCLK));

  tmpreg = RCC->CFGR;
 8000d7e:	f44f 5360 	mov.w	r3, #14336	; 0x3800
 8000d82:	f2c4 0302 	movt	r3, #16386	; 0x4002
 8000d86:	689b      	ldr	r3, [r3, #8]
 8000d88:	60fb      	str	r3, [r7, #12]

  /* Clear HPRE[3:0] bits */
  tmpreg &= ~RCC_CFGR_HPRE;
 8000d8a:	68fb      	ldr	r3, [r7, #12]
 8000d8c:	f023 03f0 	bic.w	r3, r3, #240	; 0xf0
 8000d90:	60fb      	str	r3, [r7, #12]

  /* Set HPRE[3:0] bits according to RCC_SYSCLK value */
  tmpreg |= RCC_SYSCLK;
 8000d92:	68fa      	ldr	r2, [r7, #12]
 8000d94:	687b      	ldr	r3, [r7, #4]
 8000d96:	4313      	orrs	r3, r2
 8000d98:	60fb      	str	r3, [r7, #12]

  /* Store the new value */
  RCC->CFGR = tmpreg;
 8000d9a:	f44f 5360 	mov.w	r3, #14336	; 0x3800
 8000d9e:	f2c4 0302 	movt	r3, #16386	; 0x4002
 8000da2:	68fa      	ldr	r2, [r7, #12]
 8000da4:	609a      	str	r2, [r3, #8]
}
 8000da6:	f107 0714 	add.w	r7, r7, #20
 8000daa:	46bd      	mov	sp, r7
 8000dac:	bc80      	pop	{r7}
 8000dae:	4770      	bx	lr

08000db0 <RCC_PCLK1Config>:
  *            @arg RCC_HCLK_Div8:  APB1 clock = HCLK/8
  *            @arg RCC_HCLK_Div16: APB1 clock = HCLK/16
  * @retval None
  */
void RCC_PCLK1Config(uint32_t RCC_HCLK)
{
 8000db0:	b480      	push	{r7}
 8000db2:	b085      	sub	sp, #20
 8000db4:	af00      	add	r7, sp, #0
 8000db6:	6078      	str	r0, [r7, #4]
  uint32_t tmpreg = 0;
 8000db8:	f04f 0300 	mov.w	r3, #0
 8000dbc:	60fb      	str	r3, [r7, #12]

  /* Check the parameters */
  assert_param(IS_RCC_PCLK(RCC_HCLK));

  tmpreg = RCC->CFGR;
 8000dbe:	f44f 5360 	mov.w	r3, #14336	; 0x3800
 8000dc2:	f2c4 0302 	movt	r3, #16386	; 0x4002
 8000dc6:	689b      	ldr	r3, [r3, #8]
 8000dc8:	60fb      	str	r3, [r7, #12]

  /* Clear PPRE1[2:0] bits */
  tmpreg &= ~RCC_CFGR_PPRE1;
 8000dca:	68fb      	ldr	r3, [r7, #12]
 8000dcc:	f423 53e0 	bic.w	r3, r3, #7168	; 0x1c00
 8000dd0:	60fb      	str	r3, [r7, #12]

  /* Set PPRE1[2:0] bits according to RCC_HCLK value */
  tmpreg |= RCC_HCLK;
 8000dd2:	68fa      	ldr	r2, [r7, #12]
 8000dd4:	687b      	ldr	r3, [r7, #4]
 8000dd6:	4313      	orrs	r3, r2
 8000dd8:	60fb      	str	r3, [r7, #12]

  /* Store the new value */
  RCC->CFGR = tmpreg;
 8000dda:	f44f 5360 	mov.w	r3, #14336	; 0x3800
 8000dde:	f2c4 0302 	movt	r3, #16386	; 0x4002
 8000de2:	68fa      	ldr	r2, [r7, #12]
 8000de4:	609a      	str	r2, [r3, #8]
}
 8000de6:	f107 0714 	add.w	r7, r7, #20
 8000dea:	46bd      	mov	sp, r7
 8000dec:	bc80      	pop	{r7}
 8000dee:	4770      	bx	lr

08000df0 <RCC_PCLK2Config>:
  *            @arg RCC_HCLK_Div8:  APB2 clock = HCLK/8
  *            @arg RCC_HCLK_Div16: APB2 clock = HCLK/16
  * @retval None
  */
void RCC_PCLK2Config(uint32_t RCC_HCLK)
{
 8000df0:	b480      	push	{r7}
 8000df2:	b085      	sub	sp, #20
 8000df4:	af00      	add	r7, sp, #0
 8000df6:	6078      	str	r0, [r7, #4]
  uint32_t tmpreg = 0;
 8000df8:	f04f 0300 	mov.w	r3, #0
 8000dfc:	60fb      	str	r3, [r7, #12]

  /* Check the parameters */
  assert_param(IS_RCC_PCLK(RCC_HCLK));

  tmpreg = RCC->CFGR;
 8000dfe:	f44f 5360 	mov.w	r3, #14336	; 0x3800
 8000e02:	f2c4 0302 	movt	r3, #16386	; 0x4002
 8000e06:	689b      	ldr	r3, [r3, #8]
 8000e08:	60fb      	str	r3, [r7, #12]

  /* Clear PPRE2[2:0] bits */
  tmpreg &= ~RCC_CFGR_PPRE2;
 8000e0a:	68fb      	ldr	r3, [r7, #12]
 8000e0c:	f423 4360 	bic.w	r3, r3, #57344	; 0xe000
 8000e10:	60fb      	str	r3, [r7, #12]

  /* Set PPRE2[2:0] bits according to RCC_HCLK value */
  tmpreg |= RCC_HCLK << 3;
 8000e12:	687b      	ldr	r3, [r7, #4]
 8000e14:	ea4f 03c3 	mov.w	r3, r3, lsl #3
 8000e18:	68fa      	ldr	r2, [r7, #12]
 8000e1a:	4313      	orrs	r3, r2
 8000e1c:	60fb      	str	r3, [r7, #12]

  /* Store the new value */
  RCC->CFGR = tmpreg;
 8000e1e:	f44f 5360 	mov.w	r3, #14336	; 0x3800
 8000e22:	f2c4 0302 	movt	r3, #16386	; 0x4002
 8000e26:	68fa      	ldr	r2, [r7, #12]
 8000e28:	609a      	str	r2, [r3, #8]
}
 8000e2a:	f107 0714 	add.w	r7, r7, #20
 8000e2e:	46bd      	mov	sp, r7
 8000e30:	bc80      	pop	{r7}
 8000e32:	4770      	bx	lr

08000e34 <RCC_GetClocksFreq>:
  *         configuration based on this function will be incorrect.
  *    
  * @retval None
  */
void RCC_GetClocksFreq(RCC_ClocksTypeDef* RCC_Clocks)
{
 8000e34:	b480      	push	{r7}
 8000e36:	b089      	sub	sp, #36	; 0x24
 8000e38:	af00      	add	r7, sp, #0
 8000e3a:	6078      	str	r0, [r7, #4]
  uint32_t tmp = 0, presc = 0, pllvco = 0, pllp = 2, pllsource = 0, pllm = 2;
 8000e3c:	f04f 0300 	mov.w	r3, #0
 8000e40:	61bb      	str	r3, [r7, #24]
 8000e42:	f04f 0300 	mov.w	r3, #0
 8000e46:	617b      	str	r3, [r7, #20]
 8000e48:	f04f 0300 	mov.w	r3, #0
 8000e4c:	61fb      	str	r3, [r7, #28]
 8000e4e:	f04f 0302 	mov.w	r3, #2
 8000e52:	613b      	str	r3, [r7, #16]
 8000e54:	f04f 0300 	mov.w	r3, #0
 8000e58:	60fb      	str	r3, [r7, #12]
 8000e5a:	f04f 0302 	mov.w	r3, #2
 8000e5e:	60bb      	str	r3, [r7, #8]

  /* Get SYSCLK source -------------------------------------------------------*/
  tmp = RCC->CFGR & RCC_CFGR_SWS;
 8000e60:	f44f 5360 	mov.w	r3, #14336	; 0x3800
 8000e64:	f2c4 0302 	movt	r3, #16386	; 0x4002
 8000e68:	689b      	ldr	r3, [r3, #8]
 8000e6a:	f003 030c 	and.w	r3, r3, #12
 8000e6e:	61bb      	str	r3, [r7, #24]

  switch (tmp)
 8000e70:	69bb      	ldr	r3, [r7, #24]
 8000e72:	2b04      	cmp	r3, #4
 8000e74:	d00a      	beq.n	8000e8c <RCC_GetClocksFreq+0x58>
 8000e76:	2b08      	cmp	r3, #8
 8000e78:	d00f      	beq.n	8000e9a <RCC_GetClocksFreq+0x66>
 8000e7a:	2b00      	cmp	r3, #0
 8000e7c:	d160      	bne.n	8000f40 <RCC_GetClocksFreq+0x10c>
  {
    case 0x00:  /* HSI used as system clock source */
      RCC_Clocks->SYSCLK_Frequency = HSI_VALUE;
 8000e7e:	687a      	ldr	r2, [r7, #4]
 8000e80:	f44f 5310 	mov.w	r3, #9216	; 0x2400
 8000e84:	f2c0 03f4 	movt	r3, #244	; 0xf4
 8000e88:	6013      	str	r3, [r2, #0]
      break;
 8000e8a:	e060      	b.n	8000f4e <RCC_GetClocksFreq+0x11a>
    case 0x04:  /* HSE used as system clock  source */
      RCC_Clocks->SYSCLK_Frequency = HSE_VALUE;
 8000e8c:	687a      	ldr	r2, [r7, #4]
 8000e8e:	f647 0340 	movw	r3, #30784	; 0x7840
 8000e92:	f2c0 137d 	movt	r3, #381	; 0x17d
 8000e96:	6013      	str	r3, [r2, #0]
      break;
 8000e98:	e059      	b.n	8000f4e <RCC_GetClocksFreq+0x11a>
    case 0x08:  /* PLL used as system clock  source */

      /* PLL_VCO = (HSE_VALUE or HSI_VALUE / PLLM) * PLLN
         SYSCLK = PLL_VCO / PLLP
         */    
      pllsource = (RCC->PLLCFGR & RCC_PLLCFGR_PLLSRC) >> 22;
 8000e9a:	f44f 5360 	mov.w	r3, #14336	; 0x3800
 8000e9e:	f2c4 0302 	movt	r3, #16386	; 0x4002
 8000ea2:	685b      	ldr	r3, [r3, #4]
 8000ea4:	f403 0380 	and.w	r3, r3, #4194304	; 0x400000
 8000ea8:	ea4f 5393 	mov.w	r3, r3, lsr #22
 8000eac:	60fb      	str	r3, [r7, #12]
      pllm = RCC->PLLCFGR & RCC_PLLCFGR_PLLM;
 8000eae:	f44f 5360 	mov.w	r3, #14336	; 0x3800
 8000eb2:	f2c4 0302 	movt	r3, #16386	; 0x4002
 8000eb6:	685b      	ldr	r3, [r3, #4]
 8000eb8:	f003 033f 	and.w	r3, r3, #63	; 0x3f
 8000ebc:	60bb      	str	r3, [r7, #8]
      
      if (pllsource != 0)
 8000ebe:	68fb      	ldr	r3, [r7, #12]
 8000ec0:	2b00      	cmp	r3, #0
 8000ec2:	d014      	beq.n	8000eee <RCC_GetClocksFreq+0xba>
      {
        /* HSE used as PLL clock source */
        pllvco = (HSE_VALUE / pllm) * ((RCC->PLLCFGR & RCC_PLLCFGR_PLLN) >> 6);
 8000ec4:	f647 0340 	movw	r3, #30784	; 0x7840
 8000ec8:	f2c0 137d 	movt	r3, #381	; 0x17d
 8000ecc:	68ba      	ldr	r2, [r7, #8]
 8000ece:	fbb3 f2f2 	udiv	r2, r3, r2
 8000ed2:	f44f 5360 	mov.w	r3, #14336	; 0x3800
 8000ed6:	f2c4 0302 	movt	r3, #16386	; 0x4002
 8000eda:	6859      	ldr	r1, [r3, #4]
 8000edc:	f647 73c0 	movw	r3, #32704	; 0x7fc0
 8000ee0:	400b      	ands	r3, r1
 8000ee2:	ea4f 1393 	mov.w	r3, r3, lsr #6
 8000ee6:	fb03 f302 	mul.w	r3, r3, r2
 8000eea:	61fb      	str	r3, [r7, #28]
 8000eec:	e013      	b.n	8000f16 <RCC_GetClocksFreq+0xe2>
      }
      else
      {
        /* HSI used as PLL clock source */
        pllvco = (HSI_VALUE / pllm) * ((RCC->PLLCFGR & RCC_PLLCFGR_PLLN) >> 6);      
 8000eee:	f44f 5310 	mov.w	r3, #9216	; 0x2400
 8000ef2:	f2c0 03f4 	movt	r3, #244	; 0xf4
 8000ef6:	68ba      	ldr	r2, [r7, #8]
 8000ef8:	fbb3 f2f2 	udiv	r2, r3, r2
 8000efc:	f44f 5360 	mov.w	r3, #14336	; 0x3800
 8000f00:	f2c4 0302 	movt	r3, #16386	; 0x4002
 8000f04:	6859      	ldr	r1, [r3, #4]
 8000f06:	f647 73c0 	movw	r3, #32704	; 0x7fc0
 8000f0a:	400b      	ands	r3, r1
 8000f0c:	ea4f 1393 	mov.w	r3, r3, lsr #6
 8000f10:	fb03 f302 	mul.w	r3, r3, r2
 8000f14:	61fb      	str	r3, [r7, #28]
      }

      pllp = (((RCC->PLLCFGR & RCC_PLLCFGR_PLLP) >>16) + 1 ) *2;
 8000f16:	f44f 5360 	mov.w	r3, #14336	; 0x3800
 8000f1a:	f2c4 0302 	movt	r3, #16386	; 0x4002
 8000f1e:	685b      	ldr	r3, [r3, #4]
 8000f20:	f403 3340 	and.w	r3, r3, #196608	; 0x30000
 8000f24:	ea4f 4313 	mov.w	r3, r3, lsr #16
 8000f28:	f103 0301 	add.w	r3, r3, #1
 8000f2c:	ea4f 0343 	mov.w	r3, r3, lsl #1
 8000f30:	613b      	str	r3, [r7, #16]
      RCC_Clocks->SYSCLK_Frequency = pllvco/pllp;
 8000f32:	69fa      	ldr	r2, [r7, #28]
 8000f34:	693b      	ldr	r3, [r7, #16]
 8000f36:	fbb2 f2f3 	udiv	r2, r2, r3
 8000f3a:	687b      	ldr	r3, [r7, #4]
 8000f3c:	601a      	str	r2, [r3, #0]
      break;
 8000f3e:	e006      	b.n	8000f4e <RCC_GetClocksFreq+0x11a>
    default:
      RCC_Clocks->SYSCLK_Frequency = HSI_VALUE;
 8000f40:	687a      	ldr	r2, [r7, #4]
 8000f42:	f44f 5310 	mov.w	r3, #9216	; 0x2400
 8000f46:	f2c0 03f4 	movt	r3, #244	; 0xf4
 8000f4a:	6013      	str	r3, [r2, #0]
      break;
 8000f4c:	bf00      	nop
  }
  /* Compute HCLK, PCLK1 and PCLK2 clocks frequencies ------------------------*/

  /* Get HCLK prescaler */
  tmp = RCC->CFGR & RCC_CFGR_HPRE;
 8000f4e:	f44f 5360 	mov.w	r3, #14336	; 0x3800
 8000f52:	f2c4 0302 	movt	r3, #16386	; 0x4002
 8000f56:	689b      	ldr	r3, [r3, #8]
 8000f58:	f003 03f0 	and.w	r3, r3, #240	; 0xf0
 8000f5c:	61bb      	str	r3, [r7, #24]
  tmp = tmp >> 4;
 8000f5e:	69bb      	ldr	r3, [r7, #24]
 8000f60:	ea4f 1313 	mov.w	r3, r3, lsr #4
 8000f64:	61bb      	str	r3, [r7, #24]
  presc = APBAHBPrescTable[tmp];
 8000f66:	f240 139c 	movw	r3, #412	; 0x19c
 8000f6a:	f2c2 0300 	movt	r3, #8192	; 0x2000
 8000f6e:	69ba      	ldr	r2, [r7, #24]
 8000f70:	189b      	adds	r3, r3, r2
 8000f72:	781b      	ldrb	r3, [r3, #0]
 8000f74:	b2db      	uxtb	r3, r3
 8000f76:	617b      	str	r3, [r7, #20]
  /* HCLK clock frequency */
  RCC_Clocks->HCLK_Frequency = RCC_Clocks->SYSCLK_Frequency >> presc;
 8000f78:	687b      	ldr	r3, [r7, #4]
 8000f7a:	681a      	ldr	r2, [r3, #0]
 8000f7c:	697b      	ldr	r3, [r7, #20]
 8000f7e:	fa22 f203 	lsr.w	r2, r2, r3
 8000f82:	687b      	ldr	r3, [r7, #4]
 8000f84:	605a      	str	r2, [r3, #4]

  /* Get PCLK1 prescaler */
  tmp = RCC->CFGR & RCC_CFGR_PPRE1;
 8000f86:	f44f 5360 	mov.w	r3, #14336	; 0x3800
 8000f8a:	f2c4 0302 	movt	r3, #16386	; 0x4002
 8000f8e:	689b      	ldr	r3, [r3, #8]
 8000f90:	f403 53e0 	and.w	r3, r3, #7168	; 0x1c00
 8000f94:	61bb      	str	r3, [r7, #24]
  tmp = tmp >> 10;
 8000f96:	69bb      	ldr	r3, [r7, #24]
 8000f98:	ea4f 2393 	mov.w	r3, r3, lsr #10
 8000f9c:	61bb      	str	r3, [r7, #24]
  presc = APBAHBPrescTable[tmp];
 8000f9e:	f240 139c 	movw	r3, #412	; 0x19c
 8000fa2:	f2c2 0300 	movt	r3, #8192	; 0x2000
 8000fa6:	69ba      	ldr	r2, [r7, #24]
 8000fa8:	189b      	adds	r3, r3, r2
 8000faa:	781b      	ldrb	r3, [r3, #0]
 8000fac:	b2db      	uxtb	r3, r3
 8000fae:	617b      	str	r3, [r7, #20]
  /* PCLK1 clock frequency */
  RCC_Clocks->PCLK1_Frequency = RCC_Clocks->HCLK_Frequency >> presc;
 8000fb0:	687b      	ldr	r3, [r7, #4]
 8000fb2:	685a      	ldr	r2, [r3, #4]
 8000fb4:	697b      	ldr	r3, [r7, #20]
 8000fb6:	fa22 f203 	lsr.w	r2, r2, r3
 8000fba:	687b      	ldr	r3, [r7, #4]
 8000fbc:	609a      	str	r2, [r3, #8]

  /* Get PCLK2 prescaler */
  tmp = RCC->CFGR & RCC_CFGR_PPRE2;
 8000fbe:	f44f 5360 	mov.w	r3, #14336	; 0x3800
 8000fc2:	f2c4 0302 	movt	r3, #16386	; 0x4002
 8000fc6:	689b      	ldr	r3, [r3, #8]
 8000fc8:	f403 4360 	and.w	r3, r3, #57344	; 0xe000
 8000fcc:	61bb      	str	r3, [r7, #24]
  tmp = tmp >> 13;
 8000fce:	69bb      	ldr	r3, [r7, #24]
 8000fd0:	ea4f 3353 	mov.w	r3, r3, lsr #13
 8000fd4:	61bb      	str	r3, [r7, #24]
  presc = APBAHBPrescTable[tmp];
 8000fd6:	f240 139c 	movw	r3, #412	; 0x19c
 8000fda:	f2c2 0300 	movt	r3, #8192	; 0x2000
 8000fde:	69ba      	ldr	r2, [r7, #24]
 8000fe0:	189b      	adds	r3, r3, r2
 8000fe2:	781b      	ldrb	r3, [r3, #0]
 8000fe4:	b2db      	uxtb	r3, r3
 8000fe6:	617b      	str	r3, [r7, #20]
  /* PCLK2 clock frequency */
  RCC_Clocks->PCLK2_Frequency = RCC_Clocks->HCLK_Frequency >> presc;
 8000fe8:	687b      	ldr	r3, [r7, #4]
 8000fea:	685a      	ldr	r2, [r3, #4]
 8000fec:	697b      	ldr	r3, [r7, #20]
 8000fee:	fa22 f203 	lsr.w	r2, r2, r3
 8000ff2:	687b      	ldr	r3, [r7, #4]
 8000ff4:	60da      	str	r2, [r3, #12]
}
 8000ff6:	f107 0724 	add.w	r7, r7, #36	; 0x24
 8000ffa:	46bd      	mov	sp, r7
 8000ffc:	bc80      	pop	{r7}
 8000ffe:	4770      	bx	lr

08001000 <RCC_RTCCLKConfig>:
  *         RTC clock source).
  *  
  * @retval None
  */
void RCC_RTCCLKConfig(uint32_t RCC_RTCCLKSource)
{
 8001000:	b480      	push	{r7}
 8001002:	b085      	sub	sp, #20
 8001004:	af00      	add	r7, sp, #0
 8001006:	6078      	str	r0, [r7, #4]
  uint32_t tmpreg = 0;
 8001008:	f04f 0300 	mov.w	r3, #0
 800100c:	60fb      	str	r3, [r7, #12]

  /* Check the parameters */
  assert_param(IS_RCC_RTCCLK_SOURCE(RCC_RTCCLKSource));

  if ((RCC_RTCCLKSource & 0x00000300) == 0x00000300)
 800100e:	687b      	ldr	r3, [r7, #4]
 8001010:	f403 7340 	and.w	r3, r3, #768	; 0x300
 8001014:	f5b3 7f40 	cmp.w	r3, #768	; 0x300
 8001018:	d117      	bne.n	800104a <RCC_RTCCLKConfig+0x4a>
  { /* If HSE is selected as RTC clock source, configure HSE division factor for RTC clock */
    tmpreg = RCC->CFGR;
 800101a:	f44f 5360 	mov.w	r3, #14336	; 0x3800
 800101e:	f2c4 0302 	movt	r3, #16386	; 0x4002
 8001022:	689b      	ldr	r3, [r3, #8]
 8001024:	60fb      	str	r3, [r7, #12]

    /* Clear RTCPRE[4:0] bits */
    tmpreg &= ~RCC_CFGR_RTCPRE;
 8001026:	68fb      	ldr	r3, [r7, #12]
 8001028:	f423 13f8 	bic.w	r3, r3, #2031616	; 0x1f0000
 800102c:	60fb      	str	r3, [r7, #12]

    /* Configure HSE division factor for RTC clock */
    tmpreg |= (RCC_RTCCLKSource & 0xFFFFCFF);
 800102e:	687b      	ldr	r3, [r7, #4]
 8001030:	f023 4370 	bic.w	r3, r3, #4026531840	; 0xf0000000
 8001034:	f423 7340 	bic.w	r3, r3, #768	; 0x300
 8001038:	68fa      	ldr	r2, [r7, #12]
 800103a:	4313      	orrs	r3, r2
 800103c:	60fb      	str	r3, [r7, #12]

    /* Store the new value */
    RCC->CFGR = tmpreg;
 800103e:	f44f 5360 	mov.w	r3, #14336	; 0x3800
 8001042:	f2c4 0302 	movt	r3, #16386	; 0x4002
 8001046:	68fa      	ldr	r2, [r7, #12]
 8001048:	609a      	str	r2, [r3, #8]
  }
    
  /* Select the RTC clock source */
  RCC->BDCR |= (RCC_RTCCLKSource & 0x00000FFF);
 800104a:	f44f 5360 	mov.w	r3, #14336	; 0x3800
 800104e:	f2c4 0302 	movt	r3, #16386	; 0x4002
 8001052:	f44f 5260 	mov.w	r2, #14336	; 0x3800
 8001056:	f2c4 0202 	movt	r2, #16386	; 0x4002
 800105a:	6f11      	ldr	r1, [r2, #112]	; 0x70
 800105c:	687a      	ldr	r2, [r7, #4]
 800105e:	ea4f 5202 	mov.w	r2, r2, lsl #20
 8001062:	ea4f 5212 	mov.w	r2, r2, lsr #20
 8001066:	430a      	orrs	r2, r1
 8001068:	671a      	str	r2, [r3, #112]	; 0x70
}
 800106a:	f107 0714 	add.w	r7, r7, #20
 800106e:	46bd      	mov	sp, r7
 8001070:	bc80      	pop	{r7}
 8001072:	4770      	bx	lr

08001074 <RCC_RTCCLKCmd>:
  *         using the RCC_RTCCLKConfig function.
  * @param  NewState: new state of the RTC clock. This parameter can be: ENABLE or DISABLE.
  * @retval None
  */
void RCC_RTCCLKCmd(FunctionalState NewState)
{
 8001074:	b480      	push	{r7}
 8001076:	b083      	sub	sp, #12
 8001078:	af00      	add	r7, sp, #0
 800107a:	4603      	mov	r3, r0
 800107c:	71fb      	strb	r3, [r7, #7]
  /* Check the parameters */
  assert_param(IS_FUNCTIONAL_STATE(NewState));

  *(__IO uint32_t *) BDCR_RTCEN_BB = (uint32_t)NewState;
 800107e:	f640 633c 	movw	r3, #3644	; 0xe3c
 8001082:	f2c4 2347 	movt	r3, #16967	; 0x4247
 8001086:	79fa      	ldrb	r2, [r7, #7]
 8001088:	601a      	str	r2, [r3, #0]
}
 800108a:	f107 070c 	add.w	r7, r7, #12
 800108e:	46bd      	mov	sp, r7
 8001090:	bc80      	pop	{r7}
 8001092:	4770      	bx	lr

08001094 <RCC_BackupResetCmd>:
  * @param  NewState: new state of the Backup domain reset.
  *          This parameter can be: ENABLE or DISABLE.
  * @retval None
  */
void RCC_BackupResetCmd(FunctionalState NewState)
{
 8001094:	b480      	push	{r7}
 8001096:	b083      	sub	sp, #12
 8001098:	af00      	add	r7, sp, #0
 800109a:	4603      	mov	r3, r0
 800109c:	71fb      	strb	r3, [r7, #7]
  /* Check the parameters */
  assert_param(IS_FUNCTIONAL_STATE(NewState));
  *(__IO uint32_t *) BDCR_BDRST_BB = (uint32_t)NewState;
 800109e:	f44f 6364 	mov.w	r3, #3648	; 0xe40
 80010a2:	f2c4 2347 	movt	r3, #16967	; 0x4247
 80010a6:	79fa      	ldrb	r2, [r7, #7]
 80010a8:	601a      	str	r2, [r3, #0]
}
 80010aa:	f107 070c 	add.w	r7, r7, #12
 80010ae:	46bd      	mov	sp, r7
 80010b0:	bc80      	pop	{r7}
 80010b2:	4770      	bx	lr

080010b4 <RCC_I2SCLKConfig>:
  *            @arg RCC_I2S2CLKSource_Ext: External clock mapped on the I2S_CKIN pin
  *                                        used as I2S clock source
  * @retval None
  */
void RCC_I2SCLKConfig(uint32_t RCC_I2SCLKSource)
{
 80010b4:	b480      	push	{r7}
 80010b6:	b083      	sub	sp, #12
 80010b8:	af00      	add	r7, sp, #0
 80010ba:	6078      	str	r0, [r7, #4]
  /* Check the parameters */
  assert_param(IS_RCC_I2SCLK_SOURCE(RCC_I2SCLKSource));

  *(__IO uint32_t *) CFGR_I2SSRC_BB = RCC_I2SCLKSource;
 80010bc:	f44f 73ae 	mov.w	r3, #348	; 0x15c
 80010c0:	f2c4 2347 	movt	r3, #16967	; 0x4247
 80010c4:	687a      	ldr	r2, [r7, #4]
 80010c6:	601a      	str	r2, [r3, #0]
}
 80010c8:	f107 070c 	add.w	r7, r7, #12
 80010cc:	46bd      	mov	sp, r7
 80010ce:	bc80      	pop	{r7}
 80010d0:	4770      	bx	lr
 80010d2:	bf00      	nop

080010d4 <RCC_AHB1PeriphClockCmd>:
  * @param  NewState: new state of the specified peripheral clock.
  *          This parameter can be: ENABLE or DISABLE.
  * @retval None
  */
void RCC_AHB1PeriphClockCmd(uint32_t RCC_AHB1Periph, FunctionalState NewState)
{
 80010d4:	b480      	push	{r7}
 80010d6:	b083      	sub	sp, #12
 80010d8:	af00      	add	r7, sp, #0
 80010da:	6078      	str	r0, [r7, #4]
 80010dc:	460b      	mov	r3, r1
 80010de:	70fb      	strb	r3, [r7, #3]
  /* Check the parameters */
  assert_param(IS_RCC_AHB1_CLOCK_PERIPH(RCC_AHB1Periph));

  assert_param(IS_FUNCTIONAL_STATE(NewState));
  if (NewState != DISABLE)
 80010e0:	78fb      	ldrb	r3, [r7, #3]
 80010e2:	2b00      	cmp	r3, #0
 80010e4:	d00c      	beq.n	8001100 <RCC_AHB1PeriphClockCmd+0x2c>
  {
    RCC->AHB1ENR |= RCC_AHB1Periph;
 80010e6:	f44f 5360 	mov.w	r3, #14336	; 0x3800
 80010ea:	f2c4 0302 	movt	r3, #16386	; 0x4002
 80010ee:	f44f 5260 	mov.w	r2, #14336	; 0x3800
 80010f2:	f2c4 0202 	movt	r2, #16386	; 0x4002
 80010f6:	6b11      	ldr	r1, [r2, #48]	; 0x30
 80010f8:	687a      	ldr	r2, [r7, #4]
 80010fa:	430a      	orrs	r2, r1
 80010fc:	631a      	str	r2, [r3, #48]	; 0x30
 80010fe:	e00d      	b.n	800111c <RCC_AHB1PeriphClockCmd+0x48>
  }
  else
  {
    RCC->AHB1ENR &= ~RCC_AHB1Periph;
 8001100:	f44f 5360 	mov.w	r3, #14336	; 0x3800
 8001104:	f2c4 0302 	movt	r3, #16386	; 0x4002
 8001108:	f44f 5260 	mov.w	r2, #14336	; 0x3800
 800110c:	f2c4 0202 	movt	r2, #16386	; 0x4002
 8001110:	6b11      	ldr	r1, [r2, #48]	; 0x30
 8001112:	687a      	ldr	r2, [r7, #4]
 8001114:	ea6f 0202 	mvn.w	r2, r2
 8001118:	400a      	ands	r2, r1
 800111a:	631a      	str	r2, [r3, #48]	; 0x30
  }
}
 800111c:	f107 070c 	add.w	r7, r7, #12
 8001120:	46bd      	mov	sp, r7
 8001122:	bc80      	pop	{r7}
 8001124:	4770      	bx	lr
 8001126:	bf00      	nop

08001128 <RCC_AHB2PeriphClockCmd>:
  * @param  NewState: new state of the specified peripheral clock.
  *          This parameter can be: ENABLE or DISABLE.
  * @retval None
  */
void RCC_AHB2PeriphClockCmd(uint32_t RCC_AHB2Periph, FunctionalState NewState)
{
 8001128:	b480      	push	{r7}
 800112a:	b083      	sub	sp, #12
 800112c:	af00      	add	r7, sp, #0
 800112e:	6078      	str	r0, [r7, #4]
 8001130:	460b      	mov	r3, r1
 8001132:	70fb      	strb	r3, [r7, #3]
  /* Check the parameters */
  assert_param(IS_RCC_AHB2_PERIPH(RCC_AHB2Periph));
  assert_param(IS_FUNCTIONAL_STATE(NewState));

  if (NewState != DISABLE)
 8001134:	78fb      	ldrb	r3, [r7, #3]
 8001136:	2b00      	cmp	r3, #0
 8001138:	d00c      	beq.n	8001154 <RCC_AHB2PeriphClockCmd+0x2c>
  {
    RCC->AHB2ENR |= RCC_AHB2Periph;
 800113a:	f44f 5360 	mov.w	r3, #14336	; 0x3800
 800113e:	f2c4 0302 	movt	r3, #16386	; 0x4002
 8001142:	f44f 5260 	mov.w	r2, #14336	; 0x3800
 8001146:	f2c4 0202 	movt	r2, #16386	; 0x4002
 800114a:	6b51      	ldr	r1, [r2, #52]	; 0x34
 800114c:	687a      	ldr	r2, [r7, #4]
 800114e:	430a      	orrs	r2, r1
 8001150:	635a      	str	r2, [r3, #52]	; 0x34
 8001152:	e00d      	b.n	8001170 <RCC_AHB2PeriphClockCmd+0x48>
  }
  else
  {
    RCC->AHB2ENR &= ~RCC_AHB2Periph;
 8001154:	f44f 5360 	mov.w	r3, #14336	; 0x3800
 8001158:	f2c4 0302 	movt	r3, #16386	; 0x4002
 800115c:	f44f 5260 	mov.w	r2, #14336	; 0x3800
 8001160:	f2c4 0202 	movt	r2, #16386	; 0x4002
 8001164:	6b51      	ldr	r1, [r2, #52]	; 0x34
 8001166:	687a      	ldr	r2, [r7, #4]
 8001168:	ea6f 0202 	mvn.w	r2, r2
 800116c:	400a      	ands	r2, r1
 800116e:	635a      	str	r2, [r3, #52]	; 0x34
  }
}
 8001170:	f107 070c 	add.w	r7, r7, #12
 8001174:	46bd      	mov	sp, r7
 8001176:	bc80      	pop	{r7}
 8001178:	4770      	bx	lr
 800117a:	bf00      	nop

0800117c <RCC_AHB3PeriphClockCmd>:
  * @param  NewState: new state of the specified peripheral clock.
  *          This parameter can be: ENABLE or DISABLE.
  * @retval None
  */
void RCC_AHB3PeriphClockCmd(uint32_t RCC_AHB3Periph, FunctionalState NewState)
{
 800117c:	b480      	push	{r7}
 800117e:	b083      	sub	sp, #12
 8001180:	af00      	add	r7, sp, #0
 8001182:	6078      	str	r0, [r7, #4]
 8001184:	460b      	mov	r3, r1
 8001186:	70fb      	strb	r3, [r7, #3]
  /* Check the parameters */
  assert_param(IS_RCC_AHB3_PERIPH(RCC_AHB3Periph));  
  assert_param(IS_FUNCTIONAL_STATE(NewState));

  if (NewState != DISABLE)
 8001188:	78fb      	ldrb	r3, [r7, #3]
 800118a:	2b00      	cmp	r3, #0
 800118c:	d00c      	beq.n	80011a8 <RCC_AHB3PeriphClockCmd+0x2c>
  {
    RCC->AHB3ENR |= RCC_AHB3Periph;
 800118e:	f44f 5360 	mov.w	r3, #14336	; 0x3800
 8001192:	f2c4 0302 	movt	r3, #16386	; 0x4002
 8001196:	f44f 5260 	mov.w	r2, #14336	; 0x3800
 800119a:	f2c4 0202 	movt	r2, #16386	; 0x4002
 800119e:	6b91      	ldr	r1, [r2, #56]	; 0x38
 80011a0:	687a      	ldr	r2, [r7, #4]
 80011a2:	430a      	orrs	r2, r1
 80011a4:	639a      	str	r2, [r3, #56]	; 0x38
 80011a6:	e00d      	b.n	80011c4 <RCC_AHB3PeriphClockCmd+0x48>
  }
  else
  {
    RCC->AHB3ENR &= ~RCC_AHB3Periph;
 80011a8:	f44f 5360 	mov.w	r3, #14336	; 0x3800
 80011ac:	f2c4 0302 	movt	r3, #16386	; 0x4002
 80011b0:	f44f 5260 	mov.w	r2, #14336	; 0x3800
 80011b4:	f2c4 0202 	movt	r2, #16386	; 0x4002
 80011b8:	6b91      	ldr	r1, [r2, #56]	; 0x38
 80011ba:	687a      	ldr	r2, [r7, #4]
 80011bc:	ea6f 0202 	mvn.w	r2, r2
 80011c0:	400a      	ands	r2, r1
 80011c2:	639a      	str	r2, [r3, #56]	; 0x38
  }
}
 80011c4:	f107 070c 	add.w	r7, r7, #12
 80011c8:	46bd      	mov	sp, r7
 80011ca:	bc80      	pop	{r7}
 80011cc:	4770      	bx	lr
 80011ce:	bf00      	nop

080011d0 <RCC_APB1PeriphClockCmd>:
  * @param  NewState: new state of the specified peripheral clock.
  *          This parameter can be: ENABLE or DISABLE.
  * @retval None
  */
void RCC_APB1PeriphClockCmd(uint32_t RCC_APB1Periph, FunctionalState NewState)
{
 80011d0:	b480      	push	{r7}
 80011d2:	b083      	sub	sp, #12
 80011d4:	af00      	add	r7, sp, #0
 80011d6:	6078      	str	r0, [r7, #4]
 80011d8:	460b      	mov	r3, r1
 80011da:	70fb      	strb	r3, [r7, #3]
  /* Check the parameters */
  assert_param(IS_RCC_APB1_PERIPH(RCC_APB1Periph));  
  assert_param(IS_FUNCTIONAL_STATE(NewState));

  if (NewState != DISABLE)
 80011dc:	78fb      	ldrb	r3, [r7, #3]
 80011de:	2b00      	cmp	r3, #0
 80011e0:	d00c      	beq.n	80011fc <RCC_APB1PeriphClockCmd+0x2c>
  {
    RCC->APB1ENR |= RCC_APB1Periph;
 80011e2:	f44f 5360 	mov.w	r3, #14336	; 0x3800
 80011e6:	f2c4 0302 	movt	r3, #16386	; 0x4002
 80011ea:	f44f 5260 	mov.w	r2, #14336	; 0x3800
 80011ee:	f2c4 0202 	movt	r2, #16386	; 0x4002
 80011f2:	6c11      	ldr	r1, [r2, #64]	; 0x40
 80011f4:	687a      	ldr	r2, [r7, #4]
 80011f6:	430a      	orrs	r2, r1
 80011f8:	641a      	str	r2, [r3, #64]	; 0x40
 80011fa:	e00d      	b.n	8001218 <RCC_APB1PeriphClockCmd+0x48>
  }
  else
  {
    RCC->APB1ENR &= ~RCC_APB1Periph;
 80011fc:	f44f 5360 	mov.w	r3, #14336	; 0x3800
 8001200:	f2c4 0302 	movt	r3, #16386	; 0x4002
 8001204:	f44f 5260 	mov.w	r2, #14336	; 0x3800
 8001208:	f2c4 0202 	movt	r2, #16386	; 0x4002
 800120c:	6c11      	ldr	r1, [r2, #64]	; 0x40
 800120e:	687a      	ldr	r2, [r7, #4]
 8001210:	ea6f 0202 	mvn.w	r2, r2
 8001214:	400a      	ands	r2, r1
 8001216:	641a      	str	r2, [r3, #64]	; 0x40
  }
}
 8001218:	f107 070c 	add.w	r7, r7, #12
 800121c:	46bd      	mov	sp, r7
 800121e:	bc80      	pop	{r7}
 8001220:	4770      	bx	lr
 8001222:	bf00      	nop

08001224 <RCC_APB2PeriphClockCmd>:
  * @param  NewState: new state of the specified peripheral clock.
  *          This parameter can be: ENABLE or DISABLE.
  * @retval None
  */
void RCC_APB2PeriphClockCmd(uint32_t RCC_APB2Periph, FunctionalState NewState)
{
 8001224:	b480      	push	{r7}
 8001226:	b083      	sub	sp, #12
 8001228:	af00      	add	r7, sp, #0
 800122a:	6078      	str	r0, [r7, #4]
 800122c:	460b      	mov	r3, r1
 800122e:	70fb      	strb	r3, [r7, #3]
  /* Check the parameters */
  assert_param(IS_RCC_APB2_PERIPH(RCC_APB2Periph));
  assert_param(IS_FUNCTIONAL_STATE(NewState));

  if (NewState != DISABLE)
 8001230:	78fb      	ldrb	r3, [r7, #3]
 8001232:	2b00      	cmp	r3, #0
 8001234:	d00c      	beq.n	8001250 <RCC_APB2PeriphClockCmd+0x2c>
  {
    RCC->APB2ENR |= RCC_APB2Periph;
 8001236:	f44f 5360 	mov.w	r3, #14336	; 0x3800
 800123a:	f2c4 0302 	movt	r3, #16386	; 0x4002
 800123e:	f44f 5260 	mov.w	r2, #14336	; 0x3800
 8001242:	f2c4 0202 	movt	r2, #16386	; 0x4002
 8001246:	6c51      	ldr	r1, [r2, #68]	; 0x44
 8001248:	687a      	ldr	r2, [r7, #4]
 800124a:	430a      	orrs	r2, r1
 800124c:	645a      	str	r2, [r3, #68]	; 0x44
 800124e:	e00d      	b.n	800126c <RCC_APB2PeriphClockCmd+0x48>
  }
  else
  {
    RCC->APB2ENR &= ~RCC_APB2Periph;
 8001250:	f44f 5360 	mov.w	r3, #14336	; 0x3800
 8001254:	f2c4 0302 	movt	r3, #16386	; 0x4002
 8001258:	f44f 5260 	mov.w	r2, #14336	; 0x3800
 800125c:	f2c4 0202 	movt	r2, #16386	; 0x4002
 8001260:	6c51      	ldr	r1, [r2, #68]	; 0x44
 8001262:	687a      	ldr	r2, [r7, #4]
 8001264:	ea6f 0202 	mvn.w	r2, r2
 8001268:	400a      	ands	r2, r1
 800126a:	645a      	str	r2, [r3, #68]	; 0x44
  }
}
 800126c:	f107 070c 	add.w	r7, r7, #12
 8001270:	46bd      	mov	sp, r7
 8001272:	bc80      	pop	{r7}
 8001274:	4770      	bx	lr
 8001276:	bf00      	nop

08001278 <RCC_AHB1PeriphResetCmd>:
  * @param  NewState: new state of the specified peripheral reset.
  *          This parameter can be: ENABLE or DISABLE.
  * @retval None
  */
void RCC_AHB1PeriphResetCmd(uint32_t RCC_AHB1Periph, FunctionalState NewState)
{
 8001278:	b480      	push	{r7}
 800127a:	b083      	sub	sp, #12
 800127c:	af00      	add	r7, sp, #0
 800127e:	6078      	str	r0, [r7, #4]
 8001280:	460b      	mov	r3, r1
 8001282:	70fb      	strb	r3, [r7, #3]
  /* Check the parameters */
  assert_param(IS_RCC_AHB1_RESET_PERIPH(RCC_AHB1Periph));
  assert_param(IS_FUNCTIONAL_STATE(NewState));

  if (NewState != DISABLE)
 8001284:	78fb      	ldrb	r3, [r7, #3]
 8001286:	2b00      	cmp	r3, #0
 8001288:	d00c      	beq.n	80012a4 <RCC_AHB1PeriphResetCmd+0x2c>
  {
    RCC->AHB1RSTR |= RCC_AHB1Periph;
 800128a:	f44f 5360 	mov.w	r3, #14336	; 0x3800
 800128e:	f2c4 0302 	movt	r3, #16386	; 0x4002
 8001292:	f44f 5260 	mov.w	r2, #14336	; 0x3800
 8001296:	f2c4 0202 	movt	r2, #16386	; 0x4002
 800129a:	6911      	ldr	r1, [r2, #16]
 800129c:	687a      	ldr	r2, [r7, #4]
 800129e:	430a      	orrs	r2, r1
 80012a0:	611a      	str	r2, [r3, #16]
 80012a2:	e00d      	b.n	80012c0 <RCC_AHB1PeriphResetCmd+0x48>
  }
  else
  {
    RCC->AHB1RSTR &= ~RCC_AHB1Periph;
 80012a4:	f44f 5360 	mov.w	r3, #14336	; 0x3800
 80012a8:	f2c4 0302 	movt	r3, #16386	; 0x4002
 80012ac:	f44f 5260 	mov.w	r2, #14336	; 0x3800
 80012b0:	f2c4 0202 	movt	r2, #16386	; 0x4002
 80012b4:	6911      	ldr	r1, [r2, #16]
 80012b6:	687a      	ldr	r2, [r7, #4]
 80012b8:	ea6f 0202 	mvn.w	r2, r2
 80012bc:	400a      	ands	r2, r1
 80012be:	611a      	str	r2, [r3, #16]
  }
}
 80012c0:	f107 070c 	add.w	r7, r7, #12
 80012c4:	46bd      	mov	sp, r7
 80012c6:	bc80      	pop	{r7}
 80012c8:	4770      	bx	lr
 80012ca:	bf00      	nop

080012cc <RCC_AHB2PeriphResetCmd>:
  * @param  NewState: new state of the specified peripheral reset.
  *          This parameter can be: ENABLE or DISABLE.
  * @retval None
  */
void RCC_AHB2PeriphResetCmd(uint32_t RCC_AHB2Periph, FunctionalState NewState)
{
 80012cc:	b480      	push	{r7}
 80012ce:	b083      	sub	sp, #12
 80012d0:	af00      	add	r7, sp, #0
 80012d2:	6078      	str	r0, [r7, #4]
 80012d4:	460b      	mov	r3, r1
 80012d6:	70fb      	strb	r3, [r7, #3]
  /* Check the parameters */
  assert_param(IS_RCC_AHB2_PERIPH(RCC_AHB2Periph));
  assert_param(IS_FUNCTIONAL_STATE(NewState));

  if (NewState != DISABLE)
 80012d8:	78fb      	ldrb	r3, [r7, #3]
 80012da:	2b00      	cmp	r3, #0
 80012dc:	d00c      	beq.n	80012f8 <RCC_AHB2PeriphResetCmd+0x2c>
  {
    RCC->AHB2RSTR |= RCC_AHB2Periph;
 80012de:	f44f 5360 	mov.w	r3, #14336	; 0x3800
 80012e2:	f2c4 0302 	movt	r3, #16386	; 0x4002
 80012e6:	f44f 5260 	mov.w	r2, #14336	; 0x3800
 80012ea:	f2c4 0202 	movt	r2, #16386	; 0x4002
 80012ee:	6951      	ldr	r1, [r2, #20]
 80012f0:	687a      	ldr	r2, [r7, #4]
 80012f2:	430a      	orrs	r2, r1
 80012f4:	615a      	str	r2, [r3, #20]
 80012f6:	e00d      	b.n	8001314 <RCC_AHB2PeriphResetCmd+0x48>
  }
  else
  {
    RCC->AHB2RSTR &= ~RCC_AHB2Periph;
 80012f8:	f44f 5360 	mov.w	r3, #14336	; 0x3800
 80012fc:	f2c4 0302 	movt	r3, #16386	; 0x4002
 8001300:	f44f 5260 	mov.w	r2, #14336	; 0x3800
 8001304:	f2c4 0202 	movt	r2, #16386	; 0x4002
 8001308:	6951      	ldr	r1, [r2, #20]
 800130a:	687a      	ldr	r2, [r7, #4]
 800130c:	ea6f 0202 	mvn.w	r2, r2
 8001310:	400a      	ands	r2, r1
 8001312:	615a      	str	r2, [r3, #20]
  }
}
 8001314:	f107 070c 	add.w	r7, r7, #12
 8001318:	46bd      	mov	sp, r7
 800131a:	bc80      	pop	{r7}
 800131c:	4770      	bx	lr
 800131e:	bf00      	nop

08001320 <RCC_AHB3PeriphResetCmd>:
  * @param  NewState: new state of the specified peripheral reset.
  *          This parameter can be: ENABLE or DISABLE.
  * @retval None
  */
void RCC_AHB3PeriphResetCmd(uint32_t RCC_AHB3Periph, FunctionalState NewState)
{
 8001320:	b480      	push	{r7}
 8001322:	b083      	sub	sp, #12
 8001324:	af00      	add	r7, sp, #0
 8001326:	6078      	str	r0, [r7, #4]
 8001328:	460b      	mov	r3, r1
 800132a:	70fb      	strb	r3, [r7, #3]
  /* Check the parameters */
  assert_param(IS_RCC_AHB3_PERIPH(RCC_AHB3Periph));
  assert_param(IS_FUNCTIONAL_STATE(NewState));

  if (NewState != DISABLE)
 800132c:	78fb      	ldrb	r3, [r7, #3]
 800132e:	2b00      	cmp	r3, #0
 8001330:	d00c      	beq.n	800134c <RCC_AHB3PeriphResetCmd+0x2c>
  {
    RCC->AHB3RSTR |= RCC_AHB3Periph;
 8001332:	f44f 5360 	mov.w	r3, #14336	; 0x3800
 8001336:	f2c4 0302 	movt	r3, #16386	; 0x4002
 800133a:	f44f 5260 	mov.w	r2, #14336	; 0x3800
 800133e:	f2c4 0202 	movt	r2, #16386	; 0x4002
 8001342:	6991      	ldr	r1, [r2, #24]
 8001344:	687a      	ldr	r2, [r7, #4]
 8001346:	430a      	orrs	r2, r1
 8001348:	619a      	str	r2, [r3, #24]
 800134a:	e00d      	b.n	8001368 <RCC_AHB3PeriphResetCmd+0x48>
  }
  else
  {
    RCC->AHB3RSTR &= ~RCC_AHB3Periph;
 800134c:	f44f 5360 	mov.w	r3, #14336	; 0x3800
 8001350:	f2c4 0302 	movt	r3, #16386	; 0x4002
 8001354:	f44f 5260 	mov.w	r2, #14336	; 0x3800
 8001358:	f2c4 0202 	movt	r2, #16386	; 0x4002
 800135c:	6991      	ldr	r1, [r2, #24]
 800135e:	687a      	ldr	r2, [r7, #4]
 8001360:	ea6f 0202 	mvn.w	r2, r2
 8001364:	400a      	ands	r2, r1
 8001366:	619a      	str	r2, [r3, #24]
  }
}
 8001368:	f107 070c 	add.w	r7, r7, #12
 800136c:	46bd      	mov	sp, r7
 800136e:	bc80      	pop	{r7}
 8001370:	4770      	bx	lr
 8001372:	bf00      	nop

08001374 <RCC_APB1PeriphResetCmd>:
  * @param  NewState: new state of the specified peripheral reset.
  *          This parameter can be: ENABLE or DISABLE.
  * @retval None
  */
void RCC_APB1PeriphResetCmd(uint32_t RCC_APB1Periph, FunctionalState NewState)
{
 8001374:	b480      	push	{r7}
 8001376:	b083      	sub	sp, #12
 8001378:	af00      	add	r7, sp, #0
 800137a:	6078      	str	r0, [r7, #4]
 800137c:	460b      	mov	r3, r1
 800137e:	70fb      	strb	r3, [r7, #3]
  /* Check the parameters */
  assert_param(IS_RCC_APB1_PERIPH(RCC_APB1Periph));
  assert_param(IS_FUNCTIONAL_STATE(NewState));
  if (NewState != DISABLE)
 8001380:	78fb      	ldrb	r3, [r7, #3]
 8001382:	2b00      	cmp	r3, #0
 8001384:	d00c      	beq.n	80013a0 <RCC_APB1PeriphResetCmd+0x2c>
  {
    RCC->APB1RSTR |= RCC_APB1Periph;
 8001386:	f44f 5360 	mov.w	r3, #14336	; 0x3800
 800138a:	f2c4 0302 	movt	r3, #16386	; 0x4002
 800138e:	f44f 5260 	mov.w	r2, #14336	; 0x3800
 8001392:	f2c4 0202 	movt	r2, #16386	; 0x4002
 8001396:	6a11      	ldr	r1, [r2, #32]
 8001398:	687a      	ldr	r2, [r7, #4]
 800139a:	430a      	orrs	r2, r1
 800139c:	621a      	str	r2, [r3, #32]
 800139e:	e00d      	b.n	80013bc <RCC_APB1PeriphResetCmd+0x48>
  }
  else
  {
    RCC->APB1RSTR &= ~RCC_APB1Periph;
 80013a0:	f44f 5360 	mov.w	r3, #14336	; 0x3800
 80013a4:	f2c4 0302 	movt	r3, #16386	; 0x4002
 80013a8:	f44f 5260 	mov.w	r2, #14336	; 0x3800
 80013ac:	f2c4 0202 	movt	r2, #16386	; 0x4002
 80013b0:	6a11      	ldr	r1, [r2, #32]
 80013b2:	687a      	ldr	r2, [r7, #4]
 80013b4:	ea6f 0202 	mvn.w	r2, r2
 80013b8:	400a      	ands	r2, r1
 80013ba:	621a      	str	r2, [r3, #32]
  }
}
 80013bc:	f107 070c 	add.w	r7, r7, #12
 80013c0:	46bd      	mov	sp, r7
 80013c2:	bc80      	pop	{r7}
 80013c4:	4770      	bx	lr
 80013c6:	bf00      	nop

080013c8 <RCC_APB2PeriphResetCmd>:
  * @param  NewState: new state of the specified peripheral reset.
  *          This parameter can be: ENABLE or DISABLE.
  * @retval None
  */
void RCC_APB2PeriphResetCmd(uint32_t RCC_APB2Periph, FunctionalState NewState)
{
 80013c8:	b480      	push	{r7}
 80013ca:	b083      	sub	sp, #12
 80013cc:	af00      	add	r7, sp, #0
 80013ce:	6078      	str	r0, [r7, #4]
 80013d0:	460b      	mov	r3, r1
 80013d2:	70fb      	strb	r3, [r7, #3]
  /* Check the parameters */
  assert_param(IS_RCC_APB2_RESET_PERIPH(RCC_APB2Periph));
  assert_param(IS_FUNCTIONAL_STATE(NewState));
  if (NewState != DISABLE)
 80013d4:	78fb      	ldrb	r3, [r7, #3]
 80013d6:	2b00      	cmp	r3, #0
 80013d8:	d00c      	beq.n	80013f4 <RCC_APB2PeriphResetCmd+0x2c>
  {
    RCC->APB2RSTR |= RCC_APB2Periph;
 80013da:	f44f 5360 	mov.w	r3, #14336	; 0x3800
 80013de:	f2c4 0302 	movt	r3, #16386	; 0x4002
 80013e2:	f44f 5260 	mov.w	r2, #14336	; 0x3800
 80013e6:	f2c4 0202 	movt	r2, #16386	; 0x4002
 80013ea:	6a51      	ldr	r1, [r2, #36]	; 0x24
 80013ec:	687a      	ldr	r2, [r7, #4]
 80013ee:	430a      	orrs	r2, r1
 80013f0:	625a      	str	r2, [r3, #36]	; 0x24
 80013f2:	e00d      	b.n	8001410 <RCC_APB2PeriphResetCmd+0x48>
  }
  else
  {
    RCC->APB2RSTR &= ~RCC_APB2Periph;
 80013f4:	f44f 5360 	mov.w	r3, #14336	; 0x3800
 80013f8:	f2c4 0302 	movt	r3, #16386	; 0x4002
 80013fc:	f44f 5260 	mov.w	r2, #14336	; 0x3800
 8001400:	f2c4 0202 	movt	r2, #16386	; 0x4002
 8001404:	6a51      	ldr	r1, [r2, #36]	; 0x24
 8001406:	687a      	ldr	r2, [r7, #4]
 8001408:	ea6f 0202 	mvn.w	r2, r2
 800140c:	400a      	ands	r2, r1
 800140e:	625a      	str	r2, [r3, #36]	; 0x24
  }
}
 8001410:	f107 070c 	add.w	r7, r7, #12
 8001414:	46bd      	mov	sp, r7
 8001416:	bc80      	pop	{r7}
 8001418:	4770      	bx	lr
 800141a:	bf00      	nop

0800141c <RCC_AHB1PeriphClockLPModeCmd>:
  * @param  NewState: new state of the specified peripheral clock.
  *          This parameter can be: ENABLE or DISABLE.
  * @retval None
  */
void RCC_AHB1PeriphClockLPModeCmd(uint32_t RCC_AHB1Periph, FunctionalState NewState)
{
 800141c:	b480      	push	{r7}
 800141e:	b083      	sub	sp, #12
 8001420:	af00      	add	r7, sp, #0
 8001422:	6078      	str	r0, [r7, #4]
 8001424:	460b      	mov	r3, r1
 8001426:	70fb      	strb	r3, [r7, #3]
  /* Check the parameters */
  assert_param(IS_RCC_AHB1_LPMODE_PERIPH(RCC_AHB1Periph));
  assert_param(IS_FUNCTIONAL_STATE(NewState));
  if (NewState != DISABLE)
 8001428:	78fb      	ldrb	r3, [r7, #3]
 800142a:	2b00      	cmp	r3, #0
 800142c:	d00c      	beq.n	8001448 <RCC_AHB1PeriphClockLPModeCmd+0x2c>
  {
    RCC->AHB1LPENR |= RCC_AHB1Periph;
 800142e:	f44f 5360 	mov.w	r3, #14336	; 0x3800
 8001432:	f2c4 0302 	movt	r3, #16386	; 0x4002
 8001436:	f44f 5260 	mov.w	r2, #14336	; 0x3800
 800143a:	f2c4 0202 	movt	r2, #16386	; 0x4002
 800143e:	6d11      	ldr	r1, [r2, #80]	; 0x50
 8001440:	687a      	ldr	r2, [r7, #4]
 8001442:	430a      	orrs	r2, r1
 8001444:	651a      	str	r2, [r3, #80]	; 0x50
 8001446:	e00d      	b.n	8001464 <RCC_AHB1PeriphClockLPModeCmd+0x48>
  }
  else
  {
    RCC->AHB1LPENR &= ~RCC_AHB1Periph;
 8001448:	f44f 5360 	mov.w	r3, #14336	; 0x3800
 800144c:	f2c4 0302 	movt	r3, #16386	; 0x4002
 8001450:	f44f 5260 	mov.w	r2, #14336	; 0x3800
 8001454:	f2c4 0202 	movt	r2, #16386	; 0x4002
 8001458:	6d11      	ldr	r1, [r2, #80]	; 0x50
 800145a:	687a      	ldr	r2, [r7, #4]
 800145c:	ea6f 0202 	mvn.w	r2, r2
 8001460:	400a      	ands	r2, r1
 8001462:	651a      	str	r2, [r3, #80]	; 0x50
  }
}
 8001464:	f107 070c 	add.w	r7, r7, #12
 8001468:	46bd      	mov	sp, r7
 800146a:	bc80      	pop	{r7}
 800146c:	4770      	bx	lr
 800146e:	bf00      	nop

08001470 <RCC_AHB2PeriphClockLPModeCmd>:
  * @param  NewState: new state of the specified peripheral clock.
  *          This parameter can be: ENABLE or DISABLE.
  * @retval None
  */
void RCC_AHB2PeriphClockLPModeCmd(uint32_t RCC_AHB2Periph, FunctionalState NewState)
{
 8001470:	b480      	push	{r7}
 8001472:	b083      	sub	sp, #12
 8001474:	af00      	add	r7, sp, #0
 8001476:	6078      	str	r0, [r7, #4]
 8001478:	460b      	mov	r3, r1
 800147a:	70fb      	strb	r3, [r7, #3]
  /* Check the parameters */
  assert_param(IS_RCC_AHB2_PERIPH(RCC_AHB2Periph));
  assert_param(IS_FUNCTIONAL_STATE(NewState));
  if (NewState != DISABLE)
 800147c:	78fb      	ldrb	r3, [r7, #3]
 800147e:	2b00      	cmp	r3, #0
 8001480:	d00c      	beq.n	800149c <RCC_AHB2PeriphClockLPModeCmd+0x2c>
  {
    RCC->AHB2LPENR |= RCC_AHB2Periph;
 8001482:	f44f 5360 	mov.w	r3, #14336	; 0x3800
 8001486:	f2c4 0302 	movt	r3, #16386	; 0x4002
 800148a:	f44f 5260 	mov.w	r2, #14336	; 0x3800
 800148e:	f2c4 0202 	movt	r2, #16386	; 0x4002
 8001492:	6d51      	ldr	r1, [r2, #84]	; 0x54
 8001494:	687a      	ldr	r2, [r7, #4]
 8001496:	430a      	orrs	r2, r1
 8001498:	655a      	str	r2, [r3, #84]	; 0x54
 800149a:	e00d      	b.n	80014b8 <RCC_AHB2PeriphClockLPModeCmd+0x48>
  }
  else
  {
    RCC->AHB2LPENR &= ~RCC_AHB2Periph;
 800149c:	f44f 5360 	mov.w	r3, #14336	; 0x3800
 80014a0:	f2c4 0302 	movt	r3, #16386	; 0x4002
 80014a4:	f44f 5260 	mov.w	r2, #14336	; 0x3800
 80014a8:	f2c4 0202 	movt	r2, #16386	; 0x4002
 80014ac:	6d51      	ldr	r1, [r2, #84]	; 0x54
 80014ae:	687a      	ldr	r2, [r7, #4]
 80014b0:	ea6f 0202 	mvn.w	r2, r2
 80014b4:	400a      	ands	r2, r1
 80014b6:	655a      	str	r2, [r3, #84]	; 0x54
  }
}
 80014b8:	f107 070c 	add.w	r7, r7, #12
 80014bc:	46bd      	mov	sp, r7
 80014be:	bc80      	pop	{r7}
 80014c0:	4770      	bx	lr
 80014c2:	bf00      	nop

080014c4 <RCC_AHB3PeriphClockLPModeCmd>:
  * @param  NewState: new state of the specified peripheral clock.
  *          This parameter can be: ENABLE or DISABLE.
  * @retval None
  */
void RCC_AHB3PeriphClockLPModeCmd(uint32_t RCC_AHB3Periph, FunctionalState NewState)
{
 80014c4:	b480      	push	{r7}
 80014c6:	b083      	sub	sp, #12
 80014c8:	af00      	add	r7, sp, #0
 80014ca:	6078      	str	r0, [r7, #4]
 80014cc:	460b      	mov	r3, r1
 80014ce:	70fb      	strb	r3, [r7, #3]
  /* Check the parameters */
  assert_param(IS_RCC_AHB3_PERIPH(RCC_AHB3Periph));
  assert_param(IS_FUNCTIONAL_STATE(NewState));
  if (NewState != DISABLE)
 80014d0:	78fb      	ldrb	r3, [r7, #3]
 80014d2:	2b00      	cmp	r3, #0
 80014d4:	d00c      	beq.n	80014f0 <RCC_AHB3PeriphClockLPModeCmd+0x2c>
  {
    RCC->AHB3LPENR |= RCC_AHB3Periph;
 80014d6:	f44f 5360 	mov.w	r3, #14336	; 0x3800
 80014da:	f2c4 0302 	movt	r3, #16386	; 0x4002
 80014de:	f44f 5260 	mov.w	r2, #14336	; 0x3800
 80014e2:	f2c4 0202 	movt	r2, #16386	; 0x4002
 80014e6:	6d91      	ldr	r1, [r2, #88]	; 0x58
 80014e8:	687a      	ldr	r2, [r7, #4]
 80014ea:	430a      	orrs	r2, r1
 80014ec:	659a      	str	r2, [r3, #88]	; 0x58
 80014ee:	e00d      	b.n	800150c <RCC_AHB3PeriphClockLPModeCmd+0x48>
  }
  else
  {
    RCC->AHB3LPENR &= ~RCC_AHB3Periph;
 80014f0:	f44f 5360 	mov.w	r3, #14336	; 0x3800
 80014f4:	f2c4 0302 	movt	r3, #16386	; 0x4002
 80014f8:	f44f 5260 	mov.w	r2, #14336	; 0x3800
 80014fc:	f2c4 0202 	movt	r2, #16386	; 0x4002
 8001500:	6d91      	ldr	r1, [r2, #88]	; 0x58
 8001502:	687a      	ldr	r2, [r7, #4]
 8001504:	ea6f 0202 	mvn.w	r2, r2
 8001508:	400a      	ands	r2, r1
 800150a:	659a      	str	r2, [r3, #88]	; 0x58
  }
}
 800150c:	f107 070c 	add.w	r7, r7, #12
 8001510:	46bd      	mov	sp, r7
 8001512:	bc80      	pop	{r7}
 8001514:	4770      	bx	lr
 8001516:	bf00      	nop

08001518 <RCC_APB1PeriphClockLPModeCmd>:
  * @param  NewState: new state of the specified peripheral clock.
  *          This parameter can be: ENABLE or DISABLE.
  * @retval None
  */
void RCC_APB1PeriphClockLPModeCmd(uint32_t RCC_APB1Periph, FunctionalState NewState)
{
 8001518:	b480      	push	{r7}
 800151a:	b083      	sub	sp, #12
 800151c:	af00      	add	r7, sp, #0
 800151e:	6078      	str	r0, [r7, #4]
 8001520:	460b      	mov	r3, r1
 8001522:	70fb      	strb	r3, [r7, #3]
  /* Check the parameters */
  assert_param(IS_RCC_APB1_PERIPH(RCC_APB1Periph));
  assert_param(IS_FUNCTIONAL_STATE(NewState));
  if (NewState != DISABLE)
 8001524:	78fb      	ldrb	r3, [r7, #3]
 8001526:	2b00      	cmp	r3, #0
 8001528:	d00c      	beq.n	8001544 <RCC_APB1PeriphClockLPModeCmd+0x2c>
  {
    RCC->APB1LPENR |= RCC_APB1Periph;
 800152a:	f44f 5360 	mov.w	r3, #14336	; 0x3800
 800152e:	f2c4 0302 	movt	r3, #16386	; 0x4002
 8001532:	f44f 5260 	mov.w	r2, #14336	; 0x3800
 8001536:	f2c4 0202 	movt	r2, #16386	; 0x4002
 800153a:	6e11      	ldr	r1, [r2, #96]	; 0x60
 800153c:	687a      	ldr	r2, [r7, #4]
 800153e:	430a      	orrs	r2, r1
 8001540:	661a      	str	r2, [r3, #96]	; 0x60
 8001542:	e00d      	b.n	8001560 <RCC_APB1PeriphClockLPModeCmd+0x48>
  }
  else
  {
    RCC->APB1LPENR &= ~RCC_APB1Periph;
 8001544:	f44f 5360 	mov.w	r3, #14336	; 0x3800
 8001548:	f2c4 0302 	movt	r3, #16386	; 0x4002
 800154c:	f44f 5260 	mov.w	r2, #14336	; 0x3800
 8001550:	f2c4 0202 	movt	r2, #16386	; 0x4002
 8001554:	6e11      	ldr	r1, [r2, #96]	; 0x60
 8001556:	687a      	ldr	r2, [r7, #4]
 8001558:	ea6f 0202 	mvn.w	r2, r2
 800155c:	400a      	ands	r2, r1
 800155e:	661a      	str	r2, [r3, #96]	; 0x60
  }
}
 8001560:	f107 070c 	add.w	r7, r7, #12
 8001564:	46bd      	mov	sp, r7
 8001566:	bc80      	pop	{r7}
 8001568:	4770      	bx	lr
 800156a:	bf00      	nop

0800156c <RCC_APB2PeriphClockLPModeCmd>:
  * @param  NewState: new state of the specified peripheral clock.
  *          This parameter can be: ENABLE or DISABLE.
  * @retval None
  */
void RCC_APB2PeriphClockLPModeCmd(uint32_t RCC_APB2Periph, FunctionalState NewState)
{
 800156c:	b480      	push	{r7}
 800156e:	b083      	sub	sp, #12
 8001570:	af00      	add	r7, sp, #0
 8001572:	6078      	str	r0, [r7, #4]
 8001574:	460b      	mov	r3, r1
 8001576:	70fb      	strb	r3, [r7, #3]
  /* Check the parameters */
  assert_param(IS_RCC_APB2_PERIPH(RCC_APB2Periph));
  assert_param(IS_FUNCTIONAL_STATE(NewState));
  if (NewState != DISABLE)
 8001578:	78fb      	ldrb	r3, [r7, #3]
 800157a:	2b00      	cmp	r3, #0
 800157c:	d00c      	beq.n	8001598 <RCC_APB2PeriphClockLPModeCmd+0x2c>
  {
    RCC->APB2LPENR |= RCC_APB2Periph;
 800157e:	f44f 5360 	mov.w	r3, #14336	; 0x3800
 8001582:	f2c4 0302 	movt	r3, #16386	; 0x4002
 8001586:	f44f 5260 	mov.w	r2, #14336	; 0x3800
 800158a:	f2c4 0202 	movt	r2, #16386	; 0x4002
 800158e:	6e51      	ldr	r1, [r2, #100]	; 0x64
 8001590:	687a      	ldr	r2, [r7, #4]
 8001592:	430a      	orrs	r2, r1
 8001594:	665a      	str	r2, [r3, #100]	; 0x64
 8001596:	e00d      	b.n	80015b4 <RCC_APB2PeriphClockLPModeCmd+0x48>
  }
  else
  {
    RCC->APB2LPENR &= ~RCC_APB2Periph;
 8001598:	f44f 5360 	mov.w	r3, #14336	; 0x3800
 800159c:	f2c4 0302 	movt	r3, #16386	; 0x4002
 80015a0:	f44f 5260 	mov.w	r2, #14336	; 0x3800
 80015a4:	f2c4 0202 	movt	r2, #16386	; 0x4002
 80015a8:	6e51      	ldr	r1, [r2, #100]	; 0x64
 80015aa:	687a      	ldr	r2, [r7, #4]
 80015ac:	ea6f 0202 	mvn.w	r2, r2
 80015b0:	400a      	ands	r2, r1
 80015b2:	665a      	str	r2, [r3, #100]	; 0x64
  }
}
 80015b4:	f107 070c 	add.w	r7, r7, #12
 80015b8:	46bd      	mov	sp, r7
 80015ba:	bc80      	pop	{r7}
 80015bc:	4770      	bx	lr
 80015be:	bf00      	nop

080015c0 <RCC_ITConfig>:
  * @param  NewState: new state of the specified RCC interrupts.
  *          This parameter can be: ENABLE or DISABLE.
  * @retval None
  */
void RCC_ITConfig(uint8_t RCC_IT, FunctionalState NewState)
{
 80015c0:	b480      	push	{r7}
 80015c2:	b083      	sub	sp, #12
 80015c4:	af00      	add	r7, sp, #0
 80015c6:	4602      	mov	r2, r0
 80015c8:	460b      	mov	r3, r1
 80015ca:	71fa      	strb	r2, [r7, #7]
 80015cc:	71bb      	strb	r3, [r7, #6]
  /* Check the parameters */
  assert_param(IS_RCC_IT(RCC_IT));
  assert_param(IS_FUNCTIONAL_STATE(NewState));
  if (NewState != DISABLE)
 80015ce:	79bb      	ldrb	r3, [r7, #6]
 80015d0:	2b00      	cmp	r3, #0
 80015d2:	d00e      	beq.n	80015f2 <RCC_ITConfig+0x32>
  {
    /* Perform Byte access to RCC_CIR[14:8] bits to enable the selected interrupts */
    *(__IO uint8_t *) CIR_BYTE2_ADDRESS |= RCC_IT;
 80015d4:	f643 030d 	movw	r3, #14349	; 0x380d
 80015d8:	f2c4 0302 	movt	r3, #16386	; 0x4002
 80015dc:	f643 020d 	movw	r2, #14349	; 0x380d
 80015e0:	f2c4 0202 	movt	r2, #16386	; 0x4002
 80015e4:	7812      	ldrb	r2, [r2, #0]
 80015e6:	b2d1      	uxtb	r1, r2
 80015e8:	79fa      	ldrb	r2, [r7, #7]
 80015ea:	430a      	orrs	r2, r1
 80015ec:	b2d2      	uxtb	r2, r2
 80015ee:	701a      	strb	r2, [r3, #0]
 80015f0:	e010      	b.n	8001614 <RCC_ITConfig+0x54>
  }
  else
  {
    /* Perform Byte access to RCC_CIR[14:8] bits to disable the selected interrupts */
    *(__IO uint8_t *) CIR_BYTE2_ADDRESS &= (uint8_t)~RCC_IT;
 80015f2:	f643 030d 	movw	r3, #14349	; 0x380d
 80015f6:	f2c4 0302 	movt	r3, #16386	; 0x4002
 80015fa:	f643 020d 	movw	r2, #14349	; 0x380d
 80015fe:	f2c4 0202 	movt	r2, #16386	; 0x4002
 8001602:	7812      	ldrb	r2, [r2, #0]
 8001604:	b2d1      	uxtb	r1, r2
 8001606:	79fa      	ldrb	r2, [r7, #7]
 8001608:	ea6f 0202 	mvn.w	r2, r2
 800160c:	b2d2      	uxtb	r2, r2
 800160e:	400a      	ands	r2, r1
 8001610:	b2d2      	uxtb	r2, r2
 8001612:	701a      	strb	r2, [r3, #0]
  }
}
 8001614:	f107 070c 	add.w	r7, r7, #12
 8001618:	46bd      	mov	sp, r7
 800161a:	bc80      	pop	{r7}
 800161c:	4770      	bx	lr
 800161e:	bf00      	nop

08001620 <RCC_GetFlagStatus>:
  *            @arg RCC_FLAG_WWDGRST: Window Watchdog reset
  *            @arg RCC_FLAG_LPWRRST: Low Power reset
  * @retval The new state of RCC_FLAG (SET or RESET).
  */
FlagStatus RCC_GetFlagStatus(uint8_t RCC_FLAG)
{
 8001620:	b480      	push	{r7}
 8001622:	b087      	sub	sp, #28
 8001624:	af00      	add	r7, sp, #0
 8001626:	4603      	mov	r3, r0
 8001628:	71fb      	strb	r3, [r7, #7]
  uint32_t tmp = 0;
 800162a:	f04f 0300 	mov.w	r3, #0
 800162e:	60fb      	str	r3, [r7, #12]
  uint32_t statusreg = 0;
 8001630:	f04f 0300 	mov.w	r3, #0
 8001634:	617b      	str	r3, [r7, #20]
  FlagStatus bitstatus = RESET;
 8001636:	f04f 0300 	mov.w	r3, #0
 800163a:	74fb      	strb	r3, [r7, #19]

  /* Check the parameters */
  assert_param(IS_RCC_FLAG(RCC_FLAG));

  /* Get the RCC register index */
  tmp = RCC_FLAG >> 5;
 800163c:	79fb      	ldrb	r3, [r7, #7]
 800163e:	ea4f 1353 	mov.w	r3, r3, lsr #5
 8001642:	b2db      	uxtb	r3, r3
 8001644:	60fb      	str	r3, [r7, #12]
  if (tmp == 1)               /* The flag to check is in CR register */
 8001646:	68fb      	ldr	r3, [r7, #12]
 8001648:	2b01      	cmp	r3, #1
 800164a:	d106      	bne.n	800165a <RCC_GetFlagStatus+0x3a>
  {
    statusreg = RCC->CR;
 800164c:	f44f 5360 	mov.w	r3, #14336	; 0x3800
 8001650:	f2c4 0302 	movt	r3, #16386	; 0x4002
 8001654:	681b      	ldr	r3, [r3, #0]
 8001656:	617b      	str	r3, [r7, #20]
 8001658:	e00f      	b.n	800167a <RCC_GetFlagStatus+0x5a>
  }
  else if (tmp == 2)          /* The flag to check is in BDCR register */
 800165a:	68fb      	ldr	r3, [r7, #12]
 800165c:	2b02      	cmp	r3, #2
 800165e:	d106      	bne.n	800166e <RCC_GetFlagStatus+0x4e>
  {
    statusreg = RCC->BDCR;
 8001660:	f44f 5360 	mov.w	r3, #14336	; 0x3800
 8001664:	f2c4 0302 	movt	r3, #16386	; 0x4002
 8001668:	6f1b      	ldr	r3, [r3, #112]	; 0x70
 800166a:	617b      	str	r3, [r7, #20]
 800166c:	e005      	b.n	800167a <RCC_GetFlagStatus+0x5a>
  }
  else                       /* The flag to check is in CSR register */
  {
    statusreg = RCC->CSR;
 800166e:	f44f 5360 	mov.w	r3, #14336	; 0x3800
 8001672:	f2c4 0302 	movt	r3, #16386	; 0x4002
 8001676:	6f5b      	ldr	r3, [r3, #116]	; 0x74
 8001678:	617b      	str	r3, [r7, #20]
  }

  /* Get the flag position */
  tmp = RCC_FLAG & FLAG_MASK;
 800167a:	79fb      	ldrb	r3, [r7, #7]
 800167c:	f003 031f 	and.w	r3, r3, #31
 8001680:	60fb      	str	r3, [r7, #12]
  if ((statusreg & ((uint32_t)1 << tmp)) != (uint32_t)RESET)
 8001682:	68fb      	ldr	r3, [r7, #12]
 8001684:	697a      	ldr	r2, [r7, #20]
 8001686:	fa22 f303 	lsr.w	r3, r2, r3
 800168a:	f003 0301 	and.w	r3, r3, #1
 800168e:	2b00      	cmp	r3, #0
 8001690:	d003      	beq.n	800169a <RCC_GetFlagStatus+0x7a>
  {
    bitstatus = SET;
 8001692:	f04f 0301 	mov.w	r3, #1
 8001696:	74fb      	strb	r3, [r7, #19]
 8001698:	e002      	b.n	80016a0 <RCC_GetFlagStatus+0x80>
  }
  else
  {
    bitstatus = RESET;
 800169a:	f04f 0300 	mov.w	r3, #0
 800169e:	74fb      	strb	r3, [r7, #19]
  }
  /* Return the flag status */
  return bitstatus;
 80016a0:	7cfb      	ldrb	r3, [r7, #19]
}
 80016a2:	4618      	mov	r0, r3
 80016a4:	f107 071c 	add.w	r7, r7, #28
 80016a8:	46bd      	mov	sp, r7
 80016aa:	bc80      	pop	{r7}
 80016ac:	4770      	bx	lr
 80016ae:	bf00      	nop

080016b0 <RCC_ClearFlag>:
  *         RCC_FLAG_IWDGRST, RCC_FLAG_WWDGRST, RCC_FLAG_LPWRRST
  * @param  None
  * @retval None
  */
void RCC_ClearFlag(void)
{
 80016b0:	b480      	push	{r7}
 80016b2:	af00      	add	r7, sp, #0
  /* Set RMVF bit to clear the reset flags */
  RCC->CSR |= RCC_CSR_RMVF;
 80016b4:	f44f 5360 	mov.w	r3, #14336	; 0x3800
 80016b8:	f2c4 0302 	movt	r3, #16386	; 0x4002
 80016bc:	f44f 5260 	mov.w	r2, #14336	; 0x3800
 80016c0:	f2c4 0202 	movt	r2, #16386	; 0x4002
 80016c4:	6f52      	ldr	r2, [r2, #116]	; 0x74
 80016c6:	f042 7280 	orr.w	r2, r2, #16777216	; 0x1000000
 80016ca:	675a      	str	r2, [r3, #116]	; 0x74
}
 80016cc:	46bd      	mov	sp, r7
 80016ce:	bc80      	pop	{r7}
 80016d0:	4770      	bx	lr
 80016d2:	bf00      	nop

080016d4 <RCC_GetITStatus>:
  *            @arg RCC_IT_PLLI2SRDY: PLLI2S ready interrupt  
  *            @arg RCC_IT_CSS: Clock Security System interrupt
  * @retval The new state of RCC_IT (SET or RESET).
  */
ITStatus RCC_GetITStatus(uint8_t RCC_IT)
{
 80016d4:	b480      	push	{r7}
 80016d6:	b085      	sub	sp, #20
 80016d8:	af00      	add	r7, sp, #0
 80016da:	4603      	mov	r3, r0
 80016dc:	71fb      	strb	r3, [r7, #7]
  ITStatus bitstatus = RESET;
 80016de:	f04f 0300 	mov.w	r3, #0
 80016e2:	73fb      	strb	r3, [r7, #15]

  /* Check the parameters */
  assert_param(IS_RCC_GET_IT(RCC_IT));

  /* Check the status of the specified RCC interrupt */
  if ((RCC->CIR & RCC_IT) != (uint32_t)RESET)
 80016e4:	f44f 5360 	mov.w	r3, #14336	; 0x3800
 80016e8:	f2c4 0302 	movt	r3, #16386	; 0x4002
 80016ec:	68da      	ldr	r2, [r3, #12]
 80016ee:	79fb      	ldrb	r3, [r7, #7]
 80016f0:	4013      	ands	r3, r2
 80016f2:	2b00      	cmp	r3, #0
 80016f4:	d003      	beq.n	80016fe <RCC_GetITStatus+0x2a>
  {
    bitstatus = SET;
 80016f6:	f04f 0301 	mov.w	r3, #1
 80016fa:	73fb      	strb	r3, [r7, #15]
 80016fc:	e002      	b.n	8001704 <RCC_GetITStatus+0x30>
  }
  else
  {
    bitstatus = RESET;
 80016fe:	f04f 0300 	mov.w	r3, #0
 8001702:	73fb      	strb	r3, [r7, #15]
  }
  /* Return the RCC_IT status */
  return  bitstatus;
 8001704:	7bfb      	ldrb	r3, [r7, #15]
}
 8001706:	4618      	mov	r0, r3
 8001708:	f107 0714 	add.w	r7, r7, #20
 800170c:	46bd      	mov	sp, r7
 800170e:	bc80      	pop	{r7}
 8001710:	4770      	bx	lr
 8001712:	bf00      	nop

08001714 <RCC_ClearITPendingBit>:
  *            @arg RCC_IT_PLLI2SRDY: PLLI2S ready interrupt  
  *            @arg RCC_IT_CSS: Clock Security System interrupt
  * @retval None
  */
void RCC_ClearITPendingBit(uint8_t RCC_IT)
{
 8001714:	b480      	push	{r7}
 8001716:	b083      	sub	sp, #12
 8001718:	af00      	add	r7, sp, #0
 800171a:	4603      	mov	r3, r0
 800171c:	71fb      	strb	r3, [r7, #7]
  /* Check the parameters */
  assert_param(IS_RCC_CLEAR_IT(RCC_IT));

  /* Perform Byte access to RCC_CIR[23:16] bits to clear the selected interrupt
     pending bits */
  *(__IO uint8_t *) CIR_BYTE3_ADDRESS = RCC_IT;
 800171e:	f643 030e 	movw	r3, #14350	; 0x380e
 8001722:	f2c4 0302 	movt	r3, #16386	; 0x4002
 8001726:	79fa      	ldrb	r2, [r7, #7]
 8001728:	701a      	strb	r2, [r3, #0]
}
 800172a:	f107 070c 	add.w	r7, r7, #12
 800172e:	46bd      	mov	sp, r7
 8001730:	bc80      	pop	{r7}
 8001732:	4770      	bx	lr

08001734 <NVIC_PriorityGroupConfig>:
  * @note   When the NVIC_PriorityGroup_0 is selected, IRQ pre-emption is no more possible. 
  *         The pending IRQ priority will be managed only by the subpriority. 
  * @retval None
  */
void NVIC_PriorityGroupConfig(uint32_t NVIC_PriorityGroup)
{
 8001734:	b480      	push	{r7}
 8001736:	b083      	sub	sp, #12
 8001738:	af00      	add	r7, sp, #0
 800173a:	6078      	str	r0, [r7, #4]
  /* Check the parameters */
  assert_param(IS_NVIC_PRIORITY_GROUP(NVIC_PriorityGroup));
  
  /* Set the PRIGROUP[10:8] bits according to NVIC_PriorityGroup value */
  SCB->AIRCR = AIRCR_VECTKEY_MASK | NVIC_PriorityGroup;
 800173c:	f44f 436d 	mov.w	r3, #60672	; 0xed00
 8001740:	f2ce 0300 	movt	r3, #57344	; 0xe000
 8001744:	687a      	ldr	r2, [r7, #4]
 8001746:	f042 62bf 	orr.w	r2, r2, #100139008	; 0x5f80000
 800174a:	f442 3200 	orr.w	r2, r2, #131072	; 0x20000
 800174e:	60da      	str	r2, [r3, #12]
}
 8001750:	f107 070c 	add.w	r7, r7, #12
 8001754:	46bd      	mov	sp, r7
 8001756:	bc80      	pop	{r7}
 8001758:	4770      	bx	lr
 800175a:	bf00      	nop

0800175c <NVIC_Init>:
  * @param  NVIC_InitStruct: pointer to a NVIC_InitTypeDef structure that contains
  *         the configuration information for the specified NVIC peripheral.
  * @retval None
  */
void NVIC_Init(NVIC_InitTypeDef* NVIC_InitStruct)
{
 800175c:	b480      	push	{r7}
 800175e:	b085      	sub	sp, #20
 8001760:	af00      	add	r7, sp, #0
 8001762:	6078      	str	r0, [r7, #4]
  uint8_t tmppriority = 0x00, tmppre = 0x00, tmpsub = 0x0F;
 8001764:	f04f 0300 	mov.w	r3, #0
 8001768:	73fb      	strb	r3, [r7, #15]
 800176a:	f04f 0300 	mov.w	r3, #0
 800176e:	73bb      	strb	r3, [r7, #14]
 8001770:	f04f 030f 	mov.w	r3, #15
 8001774:	737b      	strb	r3, [r7, #13]
  /* Check the parameters */
  assert_param(IS_FUNCTIONAL_STATE(NVIC_InitStruct->NVIC_IRQChannelCmd));
  assert_param(IS_NVIC_PREEMPTION_PRIORITY(NVIC_InitStruct->NVIC_IRQChannelPreemptionPriority));  
  assert_param(IS_NVIC_SUB_PRIORITY(NVIC_InitStruct->NVIC_IRQChannelSubPriority));
    
  if (NVIC_InitStruct->NVIC_IRQChannelCmd != DISABLE)
 8001776:	687b      	ldr	r3, [r7, #4]
 8001778:	78db      	ldrb	r3, [r3, #3]
 800177a:	2b00      	cmp	r3, #0
 800177c:	d045      	beq.n	800180a <NVIC_Init+0xae>
  {
    /* Compute the Corresponding IRQ Priority --------------------------------*/    
    tmppriority = (0x700 - ((SCB->AIRCR) & (uint32_t)0x700))>> 0x08;
 800177e:	f44f 436d 	mov.w	r3, #60672	; 0xed00
 8001782:	f2ce 0300 	movt	r3, #57344	; 0xe000
 8001786:	68db      	ldr	r3, [r3, #12]
 8001788:	ea6f 0303 	mvn.w	r3, r3
 800178c:	f403 63e0 	and.w	r3, r3, #1792	; 0x700
 8001790:	ea4f 2313 	mov.w	r3, r3, lsr #8
 8001794:	73fb      	strb	r3, [r7, #15]
    tmppre = (0x4 - tmppriority);
 8001796:	7bfb      	ldrb	r3, [r7, #15]
 8001798:	f1c3 0304 	rsb	r3, r3, #4
 800179c:	73bb      	strb	r3, [r7, #14]
    tmpsub = tmpsub >> tmppriority;
 800179e:	7b7a      	ldrb	r2, [r7, #13]
 80017a0:	7bfb      	ldrb	r3, [r7, #15]
 80017a2:	fa42 f303 	asr.w	r3, r2, r3
 80017a6:	737b      	strb	r3, [r7, #13]

    tmppriority = NVIC_InitStruct->NVIC_IRQChannelPreemptionPriority << tmppre;
 80017a8:	687b      	ldr	r3, [r7, #4]
 80017aa:	785b      	ldrb	r3, [r3, #1]
 80017ac:	461a      	mov	r2, r3
 80017ae:	7bbb      	ldrb	r3, [r7, #14]
 80017b0:	fa02 f303 	lsl.w	r3, r2, r3
 80017b4:	73fb      	strb	r3, [r7, #15]
    tmppriority |=  (uint8_t)(NVIC_InitStruct->NVIC_IRQChannelSubPriority & tmpsub);
 80017b6:	687b      	ldr	r3, [r7, #4]
 80017b8:	789a      	ldrb	r2, [r3, #2]
 80017ba:	7b7b      	ldrb	r3, [r7, #13]
 80017bc:	4013      	ands	r3, r2
 80017be:	b2da      	uxtb	r2, r3
 80017c0:	7bfb      	ldrb	r3, [r7, #15]
 80017c2:	4313      	orrs	r3, r2
 80017c4:	73fb      	strb	r3, [r7, #15]
        
    tmppriority = tmppriority << 0x04;
 80017c6:	7bfb      	ldrb	r3, [r7, #15]
 80017c8:	ea4f 1303 	mov.w	r3, r3, lsl #4
 80017cc:	73fb      	strb	r3, [r7, #15]
        
    NVIC->IP[NVIC_InitStruct->NVIC_IRQChannel] = tmppriority;
 80017ce:	f44f 4361 	mov.w	r3, #57600	; 0xe100
 80017d2:	f2ce 0300 	movt	r3, #57344	; 0xe000
 80017d6:	687a      	ldr	r2, [r7, #4]
 80017d8:	7812      	ldrb	r2, [r2, #0]
 80017da:	189b      	adds	r3, r3, r2
 80017dc:	7bfa      	ldrb	r2, [r7, #15]
 80017de:	f883 2300 	strb.w	r2, [r3, #768]	; 0x300
    
    /* Enable the Selected IRQ Channels --------------------------------------*/
    NVIC->ISER[NVIC_InitStruct->NVIC_IRQChannel >> 0x05] =
 80017e2:	f44f 4361 	mov.w	r3, #57600	; 0xe100
 80017e6:	f2ce 0300 	movt	r3, #57344	; 0xe000
 80017ea:	687a      	ldr	r2, [r7, #4]
 80017ec:	7812      	ldrb	r2, [r2, #0]
 80017ee:	ea4f 1252 	mov.w	r2, r2, lsr #5
 80017f2:	b2d2      	uxtb	r2, r2
      (uint32_t)0x01 << (NVIC_InitStruct->NVIC_IRQChannel & (uint8_t)0x1F);
 80017f4:	6879      	ldr	r1, [r7, #4]
 80017f6:	7809      	ldrb	r1, [r1, #0]
 80017f8:	f001 011f 	and.w	r1, r1, #31
 80017fc:	f04f 0001 	mov.w	r0, #1
 8001800:	fa00 f101 	lsl.w	r1, r0, r1
    tmppriority = tmppriority << 0x04;
        
    NVIC->IP[NVIC_InitStruct->NVIC_IRQChannel] = tmppriority;
    
    /* Enable the Selected IRQ Channels --------------------------------------*/
    NVIC->ISER[NVIC_InitStruct->NVIC_IRQChannel >> 0x05] =
 8001804:	f843 1022 	str.w	r1, [r3, r2, lsl #2]
 8001808:	e014      	b.n	8001834 <NVIC_Init+0xd8>
      (uint32_t)0x01 << (NVIC_InitStruct->NVIC_IRQChannel & (uint8_t)0x1F);
  }
  else
  {
    /* Disable the Selected IRQ Channels -------------------------------------*/
    NVIC->ICER[NVIC_InitStruct->NVIC_IRQChannel >> 0x05] =
 800180a:	f44f 4361 	mov.w	r3, #57600	; 0xe100
 800180e:	f2ce 0300 	movt	r3, #57344	; 0xe000
 8001812:	687a      	ldr	r2, [r7, #4]
 8001814:	7812      	ldrb	r2, [r2, #0]
 8001816:	ea4f 1252 	mov.w	r2, r2, lsr #5
 800181a:	b2d2      	uxtb	r2, r2
      (uint32_t)0x01 << (NVIC_InitStruct->NVIC_IRQChannel & (uint8_t)0x1F);
 800181c:	6879      	ldr	r1, [r7, #4]
 800181e:	7809      	ldrb	r1, [r1, #0]
 8001820:	f001 011f 	and.w	r1, r1, #31
 8001824:	f04f 0001 	mov.w	r0, #1
 8001828:	fa00 f101 	lsl.w	r1, r0, r1
      (uint32_t)0x01 << (NVIC_InitStruct->NVIC_IRQChannel & (uint8_t)0x1F);
  }
  else
  {
    /* Disable the Selected IRQ Channels -------------------------------------*/
    NVIC->ICER[NVIC_InitStruct->NVIC_IRQChannel >> 0x05] =
 800182c:	f102 0220 	add.w	r2, r2, #32
 8001830:	f843 1022 	str.w	r1, [r3, r2, lsl #2]
      (uint32_t)0x01 << (NVIC_InitStruct->NVIC_IRQChannel & (uint8_t)0x1F);
  }
}
 8001834:	f107 0714 	add.w	r7, r7, #20
 8001838:	46bd      	mov	sp, r7
 800183a:	bc80      	pop	{r7}
 800183c:	4770      	bx	lr
 800183e:	bf00      	nop

08001840 <NVIC_SetVectorTable>:
  *     @arg NVIC_VectTab_FLASH: Vector Table in internal FLASH.
  * @param  Offset: Vector Table base offset field. This value must be a multiple of 0x200.
  * @retval None
  */
void NVIC_SetVectorTable(uint32_t NVIC_VectTab, uint32_t Offset)
{ 
 8001840:	b480      	push	{r7}
 8001842:	b083      	sub	sp, #12
 8001844:	af00      	add	r7, sp, #0
 8001846:	6078      	str	r0, [r7, #4]
 8001848:	6039      	str	r1, [r7, #0]
  /* Check the parameters */
  assert_param(IS_NVIC_VECTTAB(NVIC_VectTab));
  assert_param(IS_NVIC_OFFSET(Offset));  
   
  SCB->VTOR = NVIC_VectTab | (Offset & (uint32_t)0x1FFFFF80);
 800184a:	f44f 436d 	mov.w	r3, #60672	; 0xed00
 800184e:	f2ce 0300 	movt	r3, #57344	; 0xe000
 8001852:	683a      	ldr	r2, [r7, #0]
 8001854:	f022 4260 	bic.w	r2, r2, #3758096384	; 0xe0000000
 8001858:	f022 027f 	bic.w	r2, r2, #127	; 0x7f
 800185c:	6879      	ldr	r1, [r7, #4]
 800185e:	430a      	orrs	r2, r1
 8001860:	609a      	str	r2, [r3, #8]
}
 8001862:	f107 070c 	add.w	r7, r7, #12
 8001866:	46bd      	mov	sp, r7
 8001868:	bc80      	pop	{r7}
 800186a:	4770      	bx	lr

0800186c <NVIC_SystemLPConfig>:
  *     @arg NVIC_LP_SLEEPONEXIT: Low Power Sleep on Exit.
  * @param  NewState: new state of LP condition. This parameter can be: ENABLE or DISABLE.
  * @retval None
  */
void NVIC_SystemLPConfig(uint8_t LowPowerMode, FunctionalState NewState)
{
 800186c:	b480      	push	{r7}
 800186e:	b083      	sub	sp, #12
 8001870:	af00      	add	r7, sp, #0
 8001872:	4602      	mov	r2, r0
 8001874:	460b      	mov	r3, r1
 8001876:	71fa      	strb	r2, [r7, #7]
 8001878:	71bb      	strb	r3, [r7, #6]
  /* Check the parameters */
  assert_param(IS_NVIC_LP(LowPowerMode));
  assert_param(IS_FUNCTIONAL_STATE(NewState));  
  
  if (NewState != DISABLE)
 800187a:	79bb      	ldrb	r3, [r7, #6]
 800187c:	2b00      	cmp	r3, #0
 800187e:	d00c      	beq.n	800189a <NVIC_SystemLPConfig+0x2e>
  {
    SCB->SCR |= LowPowerMode;
 8001880:	f44f 436d 	mov.w	r3, #60672	; 0xed00
 8001884:	f2ce 0300 	movt	r3, #57344	; 0xe000
 8001888:	f44f 426d 	mov.w	r2, #60672	; 0xed00
 800188c:	f2ce 0200 	movt	r2, #57344	; 0xe000
 8001890:	6911      	ldr	r1, [r2, #16]
 8001892:	79fa      	ldrb	r2, [r7, #7]
 8001894:	430a      	orrs	r2, r1
 8001896:	611a      	str	r2, [r3, #16]
 8001898:	e00d      	b.n	80018b6 <NVIC_SystemLPConfig+0x4a>
  }
  else
  {
    SCB->SCR &= (uint32_t)(~(uint32_t)LowPowerMode);
 800189a:	f44f 436d 	mov.w	r3, #60672	; 0xed00
 800189e:	f2ce 0300 	movt	r3, #57344	; 0xe000
 80018a2:	f44f 426d 	mov.w	r2, #60672	; 0xed00
 80018a6:	f2ce 0200 	movt	r2, #57344	; 0xe000
 80018aa:	6911      	ldr	r1, [r2, #16]
 80018ac:	79fa      	ldrb	r2, [r7, #7]
 80018ae:	ea6f 0202 	mvn.w	r2, r2
 80018b2:	400a      	ands	r2, r1
 80018b4:	611a      	str	r2, [r3, #16]
  }
}
 80018b6:	f107 070c 	add.w	r7, r7, #12
 80018ba:	46bd      	mov	sp, r7
 80018bc:	bc80      	pop	{r7}
 80018be:	4770      	bx	lr

080018c0 <SysTick_CLKSourceConfig>:
  *     @arg SysTick_CLKSource_HCLK_Div8: AHB clock divided by 8 selected as SysTick clock source.
  *     @arg SysTick_CLKSource_HCLK: AHB clock selected as SysTick clock source.
  * @retval None
  */
void SysTick_CLKSourceConfig(uint32_t SysTick_CLKSource)
{
 80018c0:	b480      	push	{r7}
 80018c2:	b083      	sub	sp, #12
 80018c4:	af00      	add	r7, sp, #0
 80018c6:	6078      	str	r0, [r7, #4]
  /* Check the parameters */
  assert_param(IS_SYSTICK_CLK_SOURCE(SysTick_CLKSource));
  if (SysTick_CLKSource == SysTick_CLKSource_HCLK)
 80018c8:	687b      	ldr	r3, [r7, #4]
 80018ca:	2b04      	cmp	r3, #4
 80018cc:	d10c      	bne.n	80018e8 <SysTick_CLKSourceConfig+0x28>
  {
    SysTick->CTRL |= SysTick_CLKSource_HCLK;
 80018ce:	f24e 0310 	movw	r3, #57360	; 0xe010
 80018d2:	f2ce 0300 	movt	r3, #57344	; 0xe000
 80018d6:	f24e 0210 	movw	r2, #57360	; 0xe010
 80018da:	f2ce 0200 	movt	r2, #57344	; 0xe000
 80018de:	6812      	ldr	r2, [r2, #0]
 80018e0:	f042 0204 	orr.w	r2, r2, #4
 80018e4:	601a      	str	r2, [r3, #0]
 80018e6:	e00b      	b.n	8001900 <SysTick_CLKSourceConfig+0x40>
  }
  else
  {
    SysTick->CTRL &= SysTick_CLKSource_HCLK_Div8;
 80018e8:	f24e 0310 	movw	r3, #57360	; 0xe010
 80018ec:	f2ce 0300 	movt	r3, #57344	; 0xe000
 80018f0:	f24e 0210 	movw	r2, #57360	; 0xe010
 80018f4:	f2ce 0200 	movt	r2, #57344	; 0xe000
 80018f8:	6812      	ldr	r2, [r2, #0]
 80018fa:	f022 0204 	bic.w	r2, r2, #4
 80018fe:	601a      	str	r2, [r3, #0]
  }
}
 8001900:	f107 070c 	add.w	r7, r7, #12
 8001904:	46bd      	mov	sp, r7
 8001906:	bc80      	pop	{r7}
 8001908:	4770      	bx	lr
 800190a:	bf00      	nop

0800190c <main>:
void TIM2_IRQHandler(void);
void INTTIM_Config(void);

/* main C entry point */
int main(void)
{
 800190c:	b580      	push	{r7, lr}
 800190e:	b084      	sub	sp, #16
 8001910:	af00      	add	r7, sp, #0
    GPIO_InitTypeDef GPIO_InitStructure;
    int i=0;
 8001912:	f04f 0300 	mov.w	r3, #0
 8001916:	60fb      	str	r3, [r7, #12]

    RCC->AHB1ENR |= RCC_AHB1ENR_GPIODEN;
 8001918:	f44f 5360 	mov.w	r3, #14336	; 0x3800
 800191c:	f2c4 0302 	movt	r3, #16386	; 0x4002
 8001920:	f44f 5260 	mov.w	r2, #14336	; 0x3800
 8001924:	f2c4 0202 	movt	r2, #16386	; 0x4002
 8001928:	6b12      	ldr	r2, [r2, #48]	; 0x30
 800192a:	f042 0208 	orr.w	r2, r2, #8
 800192e:	631a      	str	r2, [r3, #48]	; 0x30

    /*-------------------------- GPIO Configuration ----------------------------*/
    /* GPIOD Configuration: Pins 12, 13, 14 and 15 in output push-pull          */
    GPIO_InitStructure.GPIO_Pin = GPIO_Pin_12 | GPIO_Pin_13 | GPIO_Pin_14 | GPIO_Pin_15;
 8001930:	f44f 4370 	mov.w	r3, #61440	; 0xf000
 8001934:	607b      	str	r3, [r7, #4]
    GPIO_InitStructure.GPIO_Mode = GPIO_Mode_OUT;
 8001936:	f04f 0301 	mov.w	r3, #1
 800193a:	723b      	strb	r3, [r7, #8]
    GPIO_InitStructure.GPIO_OType = GPIO_OType_PP;
 800193c:	f04f 0300 	mov.w	r3, #0
 8001940:	72bb      	strb	r3, [r7, #10]
    GPIO_InitStructure.GPIO_PuPd = GPIO_PuPd_NOPULL;
 8001942:	f04f 0300 	mov.w	r3, #0
 8001946:	72fb      	strb	r3, [r7, #11]
    GPIO_InitStructure.GPIO_Speed = GPIO_Speed_100MHz;
 8001948:	f04f 0303 	mov.w	r3, #3
 800194c:	727b      	strb	r3, [r7, #9]
    GPIO_Init(GPIOD, &GPIO_InitStructure);
 800194e:	f107 0304 	add.w	r3, r7, #4
 8001952:	f44f 6040 	mov.w	r0, #3072	; 0xc00
 8001956:	f2c4 0002 	movt	r0, #16386	; 0x4002
 800195a:	4619      	mov	r1, r3
 800195c:	f7fe fcd0 	bl	8000300 <GPIO_Init>

    GPIO_ToggleBits(GPIOD, GPIO_Pin_13 | GPIO_Pin_15);
 8001960:	f44f 6040 	mov.w	r0, #3072	; 0xc00
 8001964:	f2c4 0002 	movt	r0, #16386	; 0x4002
 8001968:	f44f 4120 	mov.w	r1, #40960	; 0xa000
 800196c:	f7fe fe44 	bl	80005f8 <GPIO_ToggleBits>

    INTTIM_Config();
 8001970:	f000 f820 	bl	80019b4 <INTTIM_Config>

    for EVER
    {
        i++;
 8001974:	68fb      	ldr	r3, [r7, #12]
 8001976:	f103 0301 	add.w	r3, r3, #1
 800197a:	60fb      	str	r3, [r7, #12]
//        TIM_ClearITPendingBit(TIM2, TIM_IT_Update);
//        GPIO_ToggleBits(GPIOD, GPIO_Pin_12 | GPIO_Pin_13 | GPIO_Pin_14 | GPIO_Pin_15);
    }
 800197c:	e7fa      	b.n	8001974 <main+0x68>
 800197e:	bf00      	nop

08001980 <TIM2_IRQHandler>:
}

void TIM2_IRQHandler(void)
{
 8001980:	b580      	push	{r7, lr}
 8001982:	af00      	add	r7, sp, #0
    if (TIM_GetITStatus(TIM2, TIM_IT_Update) != RESET)
 8001984:	f04f 4080 	mov.w	r0, #1073741824	; 0x40000000
 8001988:	f04f 0101 	mov.w	r1, #1
 800198c:	f001 fba6 	bl	80030dc <TIM_GetITStatus>
 8001990:	4603      	mov	r3, r0
 8001992:	2b00      	cmp	r3, #0
 8001994:	d00d      	beq.n	80019b2 <TIM2_IRQHandler+0x32>
    {
        TIM_ClearITPendingBit(TIM2, TIM_IT_Update);
 8001996:	f04f 4080 	mov.w	r0, #1073741824	; 0x40000000
 800199a:	f04f 0101 	mov.w	r1, #1
 800199e:	f001 fbcd 	bl	800313c <TIM_ClearITPendingBit>
        GPIO_ToggleBits(GPIOD, GPIO_Pin_12 | GPIO_Pin_13 | GPIO_Pin_14 | GPIO_Pin_15);
 80019a2:	f44f 6040 	mov.w	r0, #3072	; 0xc00
 80019a6:	f2c4 0002 	movt	r0, #16386	; 0x4002
 80019aa:	f44f 4170 	mov.w	r1, #61440	; 0xf000
 80019ae:	f7fe fe23 	bl	80005f8 <GPIO_ToggleBits>
    }
}
 80019b2:	bd80      	pop	{r7, pc}

080019b4 <INTTIM_Config>:

void INTTIM_Config(void)
{
 80019b4:	b580      	push	{r7, lr}
 80019b6:	b084      	sub	sp, #16
 80019b8:	af00      	add	r7, sp, #0
    TIM_TimeBaseInitTypeDef  TIM_TimeBaseStructure;
    
    NVIC_InitTypeDef NVIC_InitStructure;
    /* Enable the TIM2 gloabal Interrupt */
    NVIC_InitStructure.NVIC_IRQChannel = TIM2_IRQn;
 80019ba:	f04f 031c 	mov.w	r3, #28
 80019be:	703b      	strb	r3, [r7, #0]
    NVIC_InitStructure.NVIC_IRQChannelPreemptionPriority = 0;
 80019c0:	f04f 0300 	mov.w	r3, #0
 80019c4:	707b      	strb	r3, [r7, #1]
    NVIC_InitStructure.NVIC_IRQChannelSubPriority = 1;
 80019c6:	f04f 0301 	mov.w	r3, #1
 80019ca:	70bb      	strb	r3, [r7, #2]
    NVIC_InitStructure.NVIC_IRQChannelCmd = ENABLE;
 80019cc:	f04f 0301 	mov.w	r3, #1
 80019d0:	70fb      	strb	r3, [r7, #3]
    NVIC_Init(&NVIC_InitStructure);
 80019d2:	463b      	mov	r3, r7
 80019d4:	4618      	mov	r0, r3
 80019d6:	f7ff fec1 	bl	800175c <NVIC_Init>
     
    /* TIM2 clock enable */
    //RCC_APB1PeriphClockCmd(RCC_APB1Periph_TIM2, ENABLE);
    RCC->APB1ENR |= RCC_APB1ENR_TIM2EN;
 80019da:	f44f 5360 	mov.w	r3, #14336	; 0x3800
 80019de:	f2c4 0302 	movt	r3, #16386	; 0x4002
 80019e2:	f44f 5260 	mov.w	r2, #14336	; 0x3800
 80019e6:	f2c4 0202 	movt	r2, #16386	; 0x4002
 80019ea:	6c12      	ldr	r2, [r2, #64]	; 0x40
 80019ec:	f042 0201 	orr.w	r2, r2, #1
 80019f0:	641a      	str	r2, [r3, #64]	; 0x40
    /* Time base configuration */
    TIM_TimeBaseStructure.TIM_Period = 2000 - 1; // 2 kHz down to 1 Hz (1 s)
 80019f2:	f240 73cf 	movw	r3, #1999	; 0x7cf
 80019f6:	60bb      	str	r3, [r7, #8]
    TIM_TimeBaseStructure.TIM_Prescaler = 48000 - 1; // 84 MHz Clock down to 2 kHz - max is 65536 */
 80019f8:	f64b 337f 	movw	r3, #47999	; 0xbb7f
 80019fc:	80bb      	strh	r3, [r7, #4]
    TIM_TimeBaseStructure.TIM_ClockDivision = 0;
 80019fe:	f04f 0300 	mov.w	r3, #0
 8001a02:	81bb      	strh	r3, [r7, #12]
    TIM_TimeBaseStructure.TIM_CounterMode = TIM_CounterMode_Up;
 8001a04:	f04f 0300 	mov.w	r3, #0
 8001a08:	80fb      	strh	r3, [r7, #6]
    TIM_TimeBaseInit(TIM2, &TIM_TimeBaseStructure);
 8001a0a:	f107 0304 	add.w	r3, r7, #4
 8001a0e:	f04f 4080 	mov.w	r0, #1073741824	; 0x40000000
 8001a12:	4619      	mov	r1, r3
 8001a14:	f000 f92e 	bl	8001c74 <TIM_TimeBaseInit>
    /* TIM IT enable */
    TIM_ITConfig(TIM2, TIM_IT_Update, ENABLE);
 8001a18:	f04f 4080 	mov.w	r0, #1073741824	; 0x40000000
 8001a1c:	f04f 0101 	mov.w	r1, #1
 8001a20:	f04f 0201 	mov.w	r2, #1
 8001a24:	f001 faf6 	bl	8003014 <TIM_ITConfig>
    /* TIM2 enable counter */
    TIM_Cmd(TIM2, ENABLE);
 8001a28:	f04f 4080 	mov.w	r0, #1073741824	; 0x40000000
 8001a2c:	f04f 0101 	mov.w	r1, #1
 8001a30:	f000 fab6 	bl	8001fa0 <TIM_Cmd>
}
 8001a34:	f107 0710 	add.w	r7, r7, #16
 8001a38:	46bd      	mov	sp, r7
 8001a3a:	bd80      	pop	{r7, pc}

08001a3c <TIM_DeInit>:
  * @param  TIMx: where x can be 1 to 14 to select the TIM peripheral.
  * @retval None

  */
void TIM_DeInit(TIM_TypeDef* TIMx)
{
 8001a3c:	b580      	push	{r7, lr}
 8001a3e:	b082      	sub	sp, #8
 8001a40:	af00      	add	r7, sp, #0
 8001a42:	6078      	str	r0, [r7, #4]
  /* Check the parameters */
  assert_param(IS_TIM_ALL_PERIPH(TIMx)); 
 
  if (TIMx == TIM1)
 8001a44:	687a      	ldr	r2, [r7, #4]
 8001a46:	f04f 0300 	mov.w	r3, #0
 8001a4a:	f2c4 0301 	movt	r3, #16385	; 0x4001
 8001a4e:	429a      	cmp	r2, r3
 8001a50:	d10c      	bne.n	8001a6c <TIM_DeInit+0x30>
  {
    RCC_APB2PeriphResetCmd(RCC_APB2Periph_TIM1, ENABLE);
 8001a52:	f04f 0001 	mov.w	r0, #1
 8001a56:	f04f 0101 	mov.w	r1, #1
 8001a5a:	f7ff fcb5 	bl	80013c8 <RCC_APB2PeriphResetCmd>
    RCC_APB2PeriphResetCmd(RCC_APB2Periph_TIM1, DISABLE);  
 8001a5e:	f04f 0001 	mov.w	r0, #1
 8001a62:	f04f 0100 	mov.w	r1, #0
 8001a66:	f7ff fcaf 	bl	80013c8 <RCC_APB2PeriphResetCmd>
 8001a6a:	e0ff      	b.n	8001c6c <TIM_DeInit+0x230>
  } 
  else if (TIMx == TIM2) 
 8001a6c:	687b      	ldr	r3, [r7, #4]
 8001a6e:	f1b3 4f80 	cmp.w	r3, #1073741824	; 0x40000000
 8001a72:	d10c      	bne.n	8001a8e <TIM_DeInit+0x52>
  {     
    RCC_APB1PeriphResetCmd(RCC_APB1Periph_TIM2, ENABLE);
 8001a74:	f04f 0001 	mov.w	r0, #1
 8001a78:	f04f 0101 	mov.w	r1, #1
 8001a7c:	f7ff fc7a 	bl	8001374 <RCC_APB1PeriphResetCmd>
    RCC_APB1PeriphResetCmd(RCC_APB1Periph_TIM2, DISABLE);
 8001a80:	f04f 0001 	mov.w	r0, #1
 8001a84:	f04f 0100 	mov.w	r1, #0
 8001a88:	f7ff fc74 	bl	8001374 <RCC_APB1PeriphResetCmd>
 8001a8c:	e0ee      	b.n	8001c6c <TIM_DeInit+0x230>
  }  
  else if (TIMx == TIM3)
 8001a8e:	687a      	ldr	r2, [r7, #4]
 8001a90:	f44f 6380 	mov.w	r3, #1024	; 0x400
 8001a94:	f2c4 0300 	movt	r3, #16384	; 0x4000
 8001a98:	429a      	cmp	r2, r3
 8001a9a:	d10c      	bne.n	8001ab6 <TIM_DeInit+0x7a>
  { 
    RCC_APB1PeriphResetCmd(RCC_APB1Periph_TIM3, ENABLE);
 8001a9c:	f04f 0002 	mov.w	r0, #2
 8001aa0:	f04f 0101 	mov.w	r1, #1
 8001aa4:	f7ff fc66 	bl	8001374 <RCC_APB1PeriphResetCmd>
    RCC_APB1PeriphResetCmd(RCC_APB1Periph_TIM3, DISABLE);
 8001aa8:	f04f 0002 	mov.w	r0, #2
 8001aac:	f04f 0100 	mov.w	r1, #0
 8001ab0:	f7ff fc60 	bl	8001374 <RCC_APB1PeriphResetCmd>
 8001ab4:	e0da      	b.n	8001c6c <TIM_DeInit+0x230>
  }  
  else if (TIMx == TIM4)
 8001ab6:	687a      	ldr	r2, [r7, #4]
 8001ab8:	f44f 6300 	mov.w	r3, #2048	; 0x800
 8001abc:	f2c4 0300 	movt	r3, #16384	; 0x4000
 8001ac0:	429a      	cmp	r2, r3
 8001ac2:	d10c      	bne.n	8001ade <TIM_DeInit+0xa2>
  { 
    RCC_APB1PeriphResetCmd(RCC_APB1Periph_TIM4, ENABLE);
 8001ac4:	f04f 0004 	mov.w	r0, #4
 8001ac8:	f04f 0101 	mov.w	r1, #1
 8001acc:	f7ff fc52 	bl	8001374 <RCC_APB1PeriphResetCmd>
    RCC_APB1PeriphResetCmd(RCC_APB1Periph_TIM4, DISABLE);
 8001ad0:	f04f 0004 	mov.w	r0, #4
 8001ad4:	f04f 0100 	mov.w	r1, #0
 8001ad8:	f7ff fc4c 	bl	8001374 <RCC_APB1PeriphResetCmd>
 8001adc:	e0c6      	b.n	8001c6c <TIM_DeInit+0x230>
  }  
  else if (TIMx == TIM5)
 8001ade:	687a      	ldr	r2, [r7, #4]
 8001ae0:	f44f 6340 	mov.w	r3, #3072	; 0xc00
 8001ae4:	f2c4 0300 	movt	r3, #16384	; 0x4000
 8001ae8:	429a      	cmp	r2, r3
 8001aea:	d10c      	bne.n	8001b06 <TIM_DeInit+0xca>
  {      
    RCC_APB1PeriphResetCmd(RCC_APB1Periph_TIM5, ENABLE);
 8001aec:	f04f 0008 	mov.w	r0, #8
 8001af0:	f04f 0101 	mov.w	r1, #1
 8001af4:	f7ff fc3e 	bl	8001374 <RCC_APB1PeriphResetCmd>
    RCC_APB1PeriphResetCmd(RCC_APB1Periph_TIM5, DISABLE);
 8001af8:	f04f 0008 	mov.w	r0, #8
 8001afc:	f04f 0100 	mov.w	r1, #0
 8001b00:	f7ff fc38 	bl	8001374 <RCC_APB1PeriphResetCmd>
 8001b04:	e0b2      	b.n	8001c6c <TIM_DeInit+0x230>
  }  
  else if (TIMx == TIM6)  
 8001b06:	687a      	ldr	r2, [r7, #4]
 8001b08:	f44f 5380 	mov.w	r3, #4096	; 0x1000
 8001b0c:	f2c4 0300 	movt	r3, #16384	; 0x4000
 8001b10:	429a      	cmp	r2, r3
 8001b12:	d10c      	bne.n	8001b2e <TIM_DeInit+0xf2>
  {    
    RCC_APB1PeriphResetCmd(RCC_APB1Periph_TIM6, ENABLE);
 8001b14:	f04f 0010 	mov.w	r0, #16
 8001b18:	f04f 0101 	mov.w	r1, #1
 8001b1c:	f7ff fc2a 	bl	8001374 <RCC_APB1PeriphResetCmd>
    RCC_APB1PeriphResetCmd(RCC_APB1Periph_TIM6, DISABLE);
 8001b20:	f04f 0010 	mov.w	r0, #16
 8001b24:	f04f 0100 	mov.w	r1, #0
 8001b28:	f7ff fc24 	bl	8001374 <RCC_APB1PeriphResetCmd>
 8001b2c:	e09e      	b.n	8001c6c <TIM_DeInit+0x230>
  }  
  else if (TIMx == TIM7)
 8001b2e:	687a      	ldr	r2, [r7, #4]
 8001b30:	f44f 53a0 	mov.w	r3, #5120	; 0x1400
 8001b34:	f2c4 0300 	movt	r3, #16384	; 0x4000
 8001b38:	429a      	cmp	r2, r3
 8001b3a:	d10c      	bne.n	8001b56 <TIM_DeInit+0x11a>
  {      
    RCC_APB1PeriphResetCmd(RCC_APB1Periph_TIM7, ENABLE);
 8001b3c:	f04f 0020 	mov.w	r0, #32
 8001b40:	f04f 0101 	mov.w	r1, #1
 8001b44:	f7ff fc16 	bl	8001374 <RCC_APB1PeriphResetCmd>
    RCC_APB1PeriphResetCmd(RCC_APB1Periph_TIM7, DISABLE);
 8001b48:	f04f 0020 	mov.w	r0, #32
 8001b4c:	f04f 0100 	mov.w	r1, #0
 8001b50:	f7ff fc10 	bl	8001374 <RCC_APB1PeriphResetCmd>
 8001b54:	e08a      	b.n	8001c6c <TIM_DeInit+0x230>
  }  
  else if (TIMx == TIM8)
 8001b56:	687a      	ldr	r2, [r7, #4]
 8001b58:	f44f 6380 	mov.w	r3, #1024	; 0x400
 8001b5c:	f2c4 0301 	movt	r3, #16385	; 0x4001
 8001b60:	429a      	cmp	r2, r3
 8001b62:	d10c      	bne.n	8001b7e <TIM_DeInit+0x142>
  {      
    RCC_APB2PeriphResetCmd(RCC_APB2Periph_TIM8, ENABLE);
 8001b64:	f04f 0002 	mov.w	r0, #2
 8001b68:	f04f 0101 	mov.w	r1, #1
 8001b6c:	f7ff fc2c 	bl	80013c8 <RCC_APB2PeriphResetCmd>
    RCC_APB2PeriphResetCmd(RCC_APB2Periph_TIM8, DISABLE);  
 8001b70:	f04f 0002 	mov.w	r0, #2
 8001b74:	f04f 0100 	mov.w	r1, #0
 8001b78:	f7ff fc26 	bl	80013c8 <RCC_APB2PeriphResetCmd>
 8001b7c:	e076      	b.n	8001c6c <TIM_DeInit+0x230>
  }  
  else if (TIMx == TIM9)
 8001b7e:	687a      	ldr	r2, [r7, #4]
 8001b80:	f44f 4380 	mov.w	r3, #16384	; 0x4000
 8001b84:	f2c4 0301 	movt	r3, #16385	; 0x4001
 8001b88:	429a      	cmp	r2, r3
 8001b8a:	d10c      	bne.n	8001ba6 <TIM_DeInit+0x16a>
  {      
    RCC_APB2PeriphResetCmd(RCC_APB2Periph_TIM9, ENABLE);
 8001b8c:	f44f 3080 	mov.w	r0, #65536	; 0x10000
 8001b90:	f04f 0101 	mov.w	r1, #1
 8001b94:	f7ff fc18 	bl	80013c8 <RCC_APB2PeriphResetCmd>
    RCC_APB2PeriphResetCmd(RCC_APB2Periph_TIM9, DISABLE);  
 8001b98:	f44f 3080 	mov.w	r0, #65536	; 0x10000
 8001b9c:	f04f 0100 	mov.w	r1, #0
 8001ba0:	f7ff fc12 	bl	80013c8 <RCC_APB2PeriphResetCmd>
 8001ba4:	e062      	b.n	8001c6c <TIM_DeInit+0x230>
   }  
  else if (TIMx == TIM10)
 8001ba6:	687a      	ldr	r2, [r7, #4]
 8001ba8:	f44f 4388 	mov.w	r3, #17408	; 0x4400
 8001bac:	f2c4 0301 	movt	r3, #16385	; 0x4001
 8001bb0:	429a      	cmp	r2, r3
 8001bb2:	d10c      	bne.n	8001bce <TIM_DeInit+0x192>
  {      
    RCC_APB2PeriphResetCmd(RCC_APB2Periph_TIM10, ENABLE);
 8001bb4:	f44f 3000 	mov.w	r0, #131072	; 0x20000
 8001bb8:	f04f 0101 	mov.w	r1, #1
 8001bbc:	f7ff fc04 	bl	80013c8 <RCC_APB2PeriphResetCmd>
    RCC_APB2PeriphResetCmd(RCC_APB2Periph_TIM10, DISABLE);  
 8001bc0:	f44f 3000 	mov.w	r0, #131072	; 0x20000
 8001bc4:	f04f 0100 	mov.w	r1, #0
 8001bc8:	f7ff fbfe 	bl	80013c8 <RCC_APB2PeriphResetCmd>
 8001bcc:	e04e      	b.n	8001c6c <TIM_DeInit+0x230>
  }  
  else if (TIMx == TIM11) 
 8001bce:	687a      	ldr	r2, [r7, #4]
 8001bd0:	f44f 4390 	mov.w	r3, #18432	; 0x4800
 8001bd4:	f2c4 0301 	movt	r3, #16385	; 0x4001
 8001bd8:	429a      	cmp	r2, r3
 8001bda:	d10c      	bne.n	8001bf6 <TIM_DeInit+0x1ba>
  {     
    RCC_APB2PeriphResetCmd(RCC_APB2Periph_TIM11, ENABLE);
 8001bdc:	f44f 2080 	mov.w	r0, #262144	; 0x40000
 8001be0:	f04f 0101 	mov.w	r1, #1
 8001be4:	f7ff fbf0 	bl	80013c8 <RCC_APB2PeriphResetCmd>
    RCC_APB2PeriphResetCmd(RCC_APB2Periph_TIM11, DISABLE);  
 8001be8:	f44f 2080 	mov.w	r0, #262144	; 0x40000
 8001bec:	f04f 0100 	mov.w	r1, #0
 8001bf0:	f7ff fbea 	bl	80013c8 <RCC_APB2PeriphResetCmd>
 8001bf4:	e03a      	b.n	8001c6c <TIM_DeInit+0x230>
  }  
  else if (TIMx == TIM12)
 8001bf6:	687a      	ldr	r2, [r7, #4]
 8001bf8:	f44f 53c0 	mov.w	r3, #6144	; 0x1800
 8001bfc:	f2c4 0300 	movt	r3, #16384	; 0x4000
 8001c00:	429a      	cmp	r2, r3
 8001c02:	d10c      	bne.n	8001c1e <TIM_DeInit+0x1e2>
  {      
    RCC_APB1PeriphResetCmd(RCC_APB1Periph_TIM12, ENABLE);
 8001c04:	f04f 0040 	mov.w	r0, #64	; 0x40
 8001c08:	f04f 0101 	mov.w	r1, #1
 8001c0c:	f7ff fbb2 	bl	8001374 <RCC_APB1PeriphResetCmd>
    RCC_APB1PeriphResetCmd(RCC_APB1Periph_TIM12, DISABLE);  
 8001c10:	f04f 0040 	mov.w	r0, #64	; 0x40
 8001c14:	f04f 0100 	mov.w	r1, #0
 8001c18:	f7ff fbac 	bl	8001374 <RCC_APB1PeriphResetCmd>
 8001c1c:	e026      	b.n	8001c6c <TIM_DeInit+0x230>
  }  
  else if (TIMx == TIM13) 
 8001c1e:	687a      	ldr	r2, [r7, #4]
 8001c20:	f44f 53e0 	mov.w	r3, #7168	; 0x1c00
 8001c24:	f2c4 0300 	movt	r3, #16384	; 0x4000
 8001c28:	429a      	cmp	r2, r3
 8001c2a:	d10c      	bne.n	8001c46 <TIM_DeInit+0x20a>
  {       
    RCC_APB1PeriphResetCmd(RCC_APB1Periph_TIM13, ENABLE);
 8001c2c:	f04f 0080 	mov.w	r0, #128	; 0x80
 8001c30:	f04f 0101 	mov.w	r1, #1
 8001c34:	f7ff fb9e 	bl	8001374 <RCC_APB1PeriphResetCmd>
    RCC_APB1PeriphResetCmd(RCC_APB1Periph_TIM13, DISABLE);  
 8001c38:	f04f 0080 	mov.w	r0, #128	; 0x80
 8001c3c:	f04f 0100 	mov.w	r1, #0
 8001c40:	f7ff fb98 	bl	8001374 <RCC_APB1PeriphResetCmd>
 8001c44:	e012      	b.n	8001c6c <TIM_DeInit+0x230>
  }  
  else
  { 
    if (TIMx == TIM14) 
 8001c46:	687a      	ldr	r2, [r7, #4]
 8001c48:	f44f 5300 	mov.w	r3, #8192	; 0x2000
 8001c4c:	f2c4 0300 	movt	r3, #16384	; 0x4000
 8001c50:	429a      	cmp	r2, r3
 8001c52:	d10b      	bne.n	8001c6c <TIM_DeInit+0x230>
    {     
      RCC_APB1PeriphResetCmd(RCC_APB1Periph_TIM14, ENABLE);
 8001c54:	f44f 7080 	mov.w	r0, #256	; 0x100
 8001c58:	f04f 0101 	mov.w	r1, #1
 8001c5c:	f7ff fb8a 	bl	8001374 <RCC_APB1PeriphResetCmd>
      RCC_APB1PeriphResetCmd(RCC_APB1Periph_TIM14, DISABLE); 
 8001c60:	f44f 7080 	mov.w	r0, #256	; 0x100
 8001c64:	f04f 0100 	mov.w	r1, #0
 8001c68:	f7ff fb84 	bl	8001374 <RCC_APB1PeriphResetCmd>
    }   
  }
}
 8001c6c:	f107 0708 	add.w	r7, r7, #8
 8001c70:	46bd      	mov	sp, r7
 8001c72:	bd80      	pop	{r7, pc}

08001c74 <TIM_TimeBaseInit>:
  * @param  TIM_TimeBaseInitStruct: pointer to a TIM_TimeBaseInitTypeDef structure
  *         that contains the configuration information for the specified TIM peripheral.
  * @retval None
  */
void TIM_TimeBaseInit(TIM_TypeDef* TIMx, TIM_TimeBaseInitTypeDef* TIM_TimeBaseInitStruct)
{
 8001c74:	b480      	push	{r7}
 8001c76:	b085      	sub	sp, #20
 8001c78:	af00      	add	r7, sp, #0
 8001c7a:	6078      	str	r0, [r7, #4]
 8001c7c:	6039      	str	r1, [r7, #0]
  uint16_t tmpcr1 = 0;
 8001c7e:	f04f 0300 	mov.w	r3, #0
 8001c82:	81fb      	strh	r3, [r7, #14]
  /* Check the parameters */
  assert_param(IS_TIM_ALL_PERIPH(TIMx)); 
  assert_param(IS_TIM_COUNTER_MODE(TIM_TimeBaseInitStruct->TIM_CounterMode));
  assert_param(IS_TIM_CKD_DIV(TIM_TimeBaseInitStruct->TIM_ClockDivision));

  tmpcr1 = TIMx->CR1;  
 8001c84:	687b      	ldr	r3, [r7, #4]
 8001c86:	881b      	ldrh	r3, [r3, #0]
 8001c88:	81fb      	strh	r3, [r7, #14]

  if((TIMx == TIM1) || (TIMx == TIM8)||
 8001c8a:	687a      	ldr	r2, [r7, #4]
 8001c8c:	f04f 0300 	mov.w	r3, #0
 8001c90:	f2c4 0301 	movt	r3, #16385	; 0x4001
 8001c94:	429a      	cmp	r2, r3
 8001c96:	d01f      	beq.n	8001cd8 <TIM_TimeBaseInit+0x64>
 8001c98:	687a      	ldr	r2, [r7, #4]
 8001c9a:	f44f 6380 	mov.w	r3, #1024	; 0x400
 8001c9e:	f2c4 0301 	movt	r3, #16385	; 0x4001
 8001ca2:	429a      	cmp	r2, r3
 8001ca4:	d018      	beq.n	8001cd8 <TIM_TimeBaseInit+0x64>
 8001ca6:	687b      	ldr	r3, [r7, #4]
 8001ca8:	f1b3 4f80 	cmp.w	r3, #1073741824	; 0x40000000
 8001cac:	d014      	beq.n	8001cd8 <TIM_TimeBaseInit+0x64>
     (TIMx == TIM2) || (TIMx == TIM3)||
 8001cae:	687a      	ldr	r2, [r7, #4]
 8001cb0:	f44f 6380 	mov.w	r3, #1024	; 0x400
 8001cb4:	f2c4 0300 	movt	r3, #16384	; 0x4000
 8001cb8:	429a      	cmp	r2, r3
 8001cba:	d00d      	beq.n	8001cd8 <TIM_TimeBaseInit+0x64>
 8001cbc:	687a      	ldr	r2, [r7, #4]
 8001cbe:	f44f 6300 	mov.w	r3, #2048	; 0x800
 8001cc2:	f2c4 0300 	movt	r3, #16384	; 0x4000
 8001cc6:	429a      	cmp	r2, r3
 8001cc8:	d006      	beq.n	8001cd8 <TIM_TimeBaseInit+0x64>
     (TIMx == TIM4) || (TIMx == TIM5)) 
 8001cca:	687a      	ldr	r2, [r7, #4]
 8001ccc:	f44f 6340 	mov.w	r3, #3072	; 0xc00
 8001cd0:	f2c4 0300 	movt	r3, #16384	; 0x4000
 8001cd4:	429a      	cmp	r2, r3
 8001cd6:	d108      	bne.n	8001cea <TIM_TimeBaseInit+0x76>
  {
    /* Select the Counter Mode */
    tmpcr1 &= (uint16_t)(~(TIM_CR1_DIR | TIM_CR1_CMS));
 8001cd8:	89fb      	ldrh	r3, [r7, #14]
 8001cda:	f023 0370 	bic.w	r3, r3, #112	; 0x70
 8001cde:	81fb      	strh	r3, [r7, #14]
    tmpcr1 |= (uint32_t)TIM_TimeBaseInitStruct->TIM_CounterMode;
 8001ce0:	683b      	ldr	r3, [r7, #0]
 8001ce2:	885a      	ldrh	r2, [r3, #2]
 8001ce4:	89fb      	ldrh	r3, [r7, #14]
 8001ce6:	4313      	orrs	r3, r2
 8001ce8:	81fb      	strh	r3, [r7, #14]
  }
 
  if((TIMx != TIM6) && (TIMx != TIM7))
 8001cea:	687a      	ldr	r2, [r7, #4]
 8001cec:	f44f 5380 	mov.w	r3, #4096	; 0x1000
 8001cf0:	f2c4 0300 	movt	r3, #16384	; 0x4000
 8001cf4:	429a      	cmp	r2, r3
 8001cf6:	d00f      	beq.n	8001d18 <TIM_TimeBaseInit+0xa4>
 8001cf8:	687a      	ldr	r2, [r7, #4]
 8001cfa:	f44f 53a0 	mov.w	r3, #5120	; 0x1400
 8001cfe:	f2c4 0300 	movt	r3, #16384	; 0x4000
 8001d02:	429a      	cmp	r2, r3
 8001d04:	d008      	beq.n	8001d18 <TIM_TimeBaseInit+0xa4>
  {
    /* Set the clock division */
    tmpcr1 &=  (uint16_t)(~TIM_CR1_CKD);
 8001d06:	89fb      	ldrh	r3, [r7, #14]
 8001d08:	f423 7340 	bic.w	r3, r3, #768	; 0x300
 8001d0c:	81fb      	strh	r3, [r7, #14]
    tmpcr1 |= (uint32_t)TIM_TimeBaseInitStruct->TIM_ClockDivision;
 8001d0e:	683b      	ldr	r3, [r7, #0]
 8001d10:	891a      	ldrh	r2, [r3, #8]
 8001d12:	89fb      	ldrh	r3, [r7, #14]
 8001d14:	4313      	orrs	r3, r2
 8001d16:	81fb      	strh	r3, [r7, #14]
  }

  TIMx->CR1 = tmpcr1;
 8001d18:	687b      	ldr	r3, [r7, #4]
 8001d1a:	89fa      	ldrh	r2, [r7, #14]
 8001d1c:	801a      	strh	r2, [r3, #0]

  /* Set the Autoreload value */
  TIMx->ARR = TIM_TimeBaseInitStruct->TIM_Period ;
 8001d1e:	683b      	ldr	r3, [r7, #0]
 8001d20:	685a      	ldr	r2, [r3, #4]
 8001d22:	687b      	ldr	r3, [r7, #4]
 8001d24:	62da      	str	r2, [r3, #44]	; 0x2c
 
  /* Set the Prescaler value */
  TIMx->PSC = TIM_TimeBaseInitStruct->TIM_Prescaler;
 8001d26:	683b      	ldr	r3, [r7, #0]
 8001d28:	881a      	ldrh	r2, [r3, #0]
 8001d2a:	687b      	ldr	r3, [r7, #4]
 8001d2c:	851a      	strh	r2, [r3, #40]	; 0x28
    
  if ((TIMx == TIM1) || (TIMx == TIM8))  
 8001d2e:	687a      	ldr	r2, [r7, #4]
 8001d30:	f04f 0300 	mov.w	r3, #0
 8001d34:	f2c4 0301 	movt	r3, #16385	; 0x4001
 8001d38:	429a      	cmp	r2, r3
 8001d3a:	d006      	beq.n	8001d4a <TIM_TimeBaseInit+0xd6>
 8001d3c:	687a      	ldr	r2, [r7, #4]
 8001d3e:	f44f 6380 	mov.w	r3, #1024	; 0x400
 8001d42:	f2c4 0301 	movt	r3, #16385	; 0x4001
 8001d46:	429a      	cmp	r2, r3
 8001d48:	d104      	bne.n	8001d54 <TIM_TimeBaseInit+0xe0>
  {
    /* Set the Repetition Counter value */
    TIMx->RCR = TIM_TimeBaseInitStruct->TIM_RepetitionCounter;
 8001d4a:	683b      	ldr	r3, [r7, #0]
 8001d4c:	7a9b      	ldrb	r3, [r3, #10]
 8001d4e:	461a      	mov	r2, r3
 8001d50:	687b      	ldr	r3, [r7, #4]
 8001d52:	861a      	strh	r2, [r3, #48]	; 0x30
  }

  /* Generate an update event to reload the Prescaler 
     and the repetition counter(only for TIM1 and TIM8) value immediatly */
  TIMx->EGR = TIM_PSCReloadMode_Immediate;          
 8001d54:	687b      	ldr	r3, [r7, #4]
 8001d56:	f04f 0201 	mov.w	r2, #1
 8001d5a:	829a      	strh	r2, [r3, #20]
}
 8001d5c:	f107 0714 	add.w	r7, r7, #20
 8001d60:	46bd      	mov	sp, r7
 8001d62:	bc80      	pop	{r7}
 8001d64:	4770      	bx	lr
 8001d66:	bf00      	nop

08001d68 <TIM_TimeBaseStructInit>:
  * @param  TIM_TimeBaseInitStruct : pointer to a TIM_TimeBaseInitTypeDef
  *         structure which will be initialized.
  * @retval None
  */
void TIM_TimeBaseStructInit(TIM_TimeBaseInitTypeDef* TIM_TimeBaseInitStruct)
{
 8001d68:	b480      	push	{r7}
 8001d6a:	b083      	sub	sp, #12
 8001d6c:	af00      	add	r7, sp, #0
 8001d6e:	6078      	str	r0, [r7, #4]
  /* Set the default configuration */
  TIM_TimeBaseInitStruct->TIM_Period = 0xFFFFFFFF;
 8001d70:	687b      	ldr	r3, [r7, #4]
 8001d72:	f04f 32ff 	mov.w	r2, #4294967295
 8001d76:	605a      	str	r2, [r3, #4]
  TIM_TimeBaseInitStruct->TIM_Prescaler = 0x0000;
 8001d78:	687b      	ldr	r3, [r7, #4]
 8001d7a:	f04f 0200 	mov.w	r2, #0
 8001d7e:	801a      	strh	r2, [r3, #0]
  TIM_TimeBaseInitStruct->TIM_ClockDivision = TIM_CKD_DIV1;
 8001d80:	687b      	ldr	r3, [r7, #4]
 8001d82:	f04f 0200 	mov.w	r2, #0
 8001d86:	811a      	strh	r2, [r3, #8]
  TIM_TimeBaseInitStruct->TIM_CounterMode = TIM_CounterMode_Up;
 8001d88:	687b      	ldr	r3, [r7, #4]
 8001d8a:	f04f 0200 	mov.w	r2, #0
 8001d8e:	805a      	strh	r2, [r3, #2]
  TIM_TimeBaseInitStruct->TIM_RepetitionCounter = 0x0000;
 8001d90:	687b      	ldr	r3, [r7, #4]
 8001d92:	f04f 0200 	mov.w	r2, #0
 8001d96:	729a      	strb	r2, [r3, #10]
}
 8001d98:	f107 070c 	add.w	r7, r7, #12
 8001d9c:	46bd      	mov	sp, r7
 8001d9e:	bc80      	pop	{r7}
 8001da0:	4770      	bx	lr
 8001da2:	bf00      	nop

08001da4 <TIM_PrescalerConfig>:
  *            @arg TIM_PSCReloadMode_Update: The Prescaler is loaded at the update event.
  *            @arg TIM_PSCReloadMode_Immediate: The Prescaler is loaded immediatly.
  * @retval None
  */
void TIM_PrescalerConfig(TIM_TypeDef* TIMx, uint16_t Prescaler, uint16_t TIM_PSCReloadMode)
{
 8001da4:	b480      	push	{r7}
 8001da6:	b083      	sub	sp, #12
 8001da8:	af00      	add	r7, sp, #0
 8001daa:	6078      	str	r0, [r7, #4]
 8001dac:	4613      	mov	r3, r2
 8001dae:	460a      	mov	r2, r1
 8001db0:	807a      	strh	r2, [r7, #2]
 8001db2:	803b      	strh	r3, [r7, #0]
  /* Check the parameters */
  assert_param(IS_TIM_ALL_PERIPH(TIMx));
  assert_param(IS_TIM_PRESCALER_RELOAD(TIM_PSCReloadMode));
  /* Set the Prescaler value */
  TIMx->PSC = Prescaler;
 8001db4:	687b      	ldr	r3, [r7, #4]
 8001db6:	887a      	ldrh	r2, [r7, #2]
 8001db8:	851a      	strh	r2, [r3, #40]	; 0x28
  /* Set or reset the UG Bit */
  TIMx->EGR = TIM_PSCReloadMode;
 8001dba:	687b      	ldr	r3, [r7, #4]
 8001dbc:	883a      	ldrh	r2, [r7, #0]
 8001dbe:	829a      	strh	r2, [r3, #20]
}
 8001dc0:	f107 070c 	add.w	r7, r7, #12
 8001dc4:	46bd      	mov	sp, r7
 8001dc6:	bc80      	pop	{r7}
 8001dc8:	4770      	bx	lr
 8001dca:	bf00      	nop

08001dcc <TIM_CounterModeConfig>:
  *            @arg TIM_CounterMode_CenterAligned2: TIM Center Aligned Mode2
  *            @arg TIM_CounterMode_CenterAligned3: TIM Center Aligned Mode3
  * @retval None
  */
void TIM_CounterModeConfig(TIM_TypeDef* TIMx, uint16_t TIM_CounterMode)
{
 8001dcc:	b480      	push	{r7}
 8001dce:	b085      	sub	sp, #20
 8001dd0:	af00      	add	r7, sp, #0
 8001dd2:	6078      	str	r0, [r7, #4]
 8001dd4:	460b      	mov	r3, r1
 8001dd6:	807b      	strh	r3, [r7, #2]
  uint16_t tmpcr1 = 0;
 8001dd8:	f04f 0300 	mov.w	r3, #0
 8001ddc:	81fb      	strh	r3, [r7, #14]

  /* Check the parameters */
  assert_param(IS_TIM_LIST3_PERIPH(TIMx));
  assert_param(IS_TIM_COUNTER_MODE(TIM_CounterMode));

  tmpcr1 = TIMx->CR1;
 8001dde:	687b      	ldr	r3, [r7, #4]
 8001de0:	881b      	ldrh	r3, [r3, #0]
 8001de2:	81fb      	strh	r3, [r7, #14]

  /* Reset the CMS and DIR Bits */
  tmpcr1 &= (uint16_t)~(TIM_CR1_DIR | TIM_CR1_CMS);
 8001de4:	89fb      	ldrh	r3, [r7, #14]
 8001de6:	f023 0370 	bic.w	r3, r3, #112	; 0x70
 8001dea:	81fb      	strh	r3, [r7, #14]

  /* Set the Counter Mode */
  tmpcr1 |= TIM_CounterMode;
 8001dec:	89fa      	ldrh	r2, [r7, #14]
 8001dee:	887b      	ldrh	r3, [r7, #2]
 8001df0:	4313      	orrs	r3, r2
 8001df2:	81fb      	strh	r3, [r7, #14]

  /* Write to TIMx CR1 register */
  TIMx->CR1 = tmpcr1;
 8001df4:	687b      	ldr	r3, [r7, #4]
 8001df6:	89fa      	ldrh	r2, [r7, #14]
 8001df8:	801a      	strh	r2, [r3, #0]
}
 8001dfa:	f107 0714 	add.w	r7, r7, #20
 8001dfe:	46bd      	mov	sp, r7
 8001e00:	bc80      	pop	{r7}
 8001e02:	4770      	bx	lr

08001e04 <TIM_SetCounter>:
  * @param  TIMx: where x can be 1 to 14 to select the TIM peripheral.
  * @param  Counter: specifies the Counter register new value.
  * @retval None
  */
void TIM_SetCounter(TIM_TypeDef* TIMx, uint32_t Counter)
{
 8001e04:	b480      	push	{r7}
 8001e06:	b083      	sub	sp, #12
 8001e08:	af00      	add	r7, sp, #0
 8001e0a:	6078      	str	r0, [r7, #4]
 8001e0c:	6039      	str	r1, [r7, #0]
  /* Check the parameters */
   assert_param(IS_TIM_ALL_PERIPH(TIMx));

  /* Set the Counter Register value */
  TIMx->CNT = Counter;
 8001e0e:	687b      	ldr	r3, [r7, #4]
 8001e10:	683a      	ldr	r2, [r7, #0]
 8001e12:	625a      	str	r2, [r3, #36]	; 0x24
}
 8001e14:	f107 070c 	add.w	r7, r7, #12
 8001e18:	46bd      	mov	sp, r7
 8001e1a:	bc80      	pop	{r7}
 8001e1c:	4770      	bx	lr
 8001e1e:	bf00      	nop

08001e20 <TIM_SetAutoreload>:
  * @param  TIMx: where x can be 1 to 14 to select the TIM peripheral.
  * @param  Autoreload: specifies the Autoreload register new value.
  * @retval None
  */
void TIM_SetAutoreload(TIM_TypeDef* TIMx, uint32_t Autoreload)
{
 8001e20:	b480      	push	{r7}
 8001e22:	b083      	sub	sp, #12
 8001e24:	af00      	add	r7, sp, #0
 8001e26:	6078      	str	r0, [r7, #4]
 8001e28:	6039      	str	r1, [r7, #0]
  /* Check the parameters */
  assert_param(IS_TIM_ALL_PERIPH(TIMx));
  
  /* Set the Autoreload Register value */
  TIMx->ARR = Autoreload;
 8001e2a:	687b      	ldr	r3, [r7, #4]
 8001e2c:	683a      	ldr	r2, [r7, #0]
 8001e2e:	62da      	str	r2, [r3, #44]	; 0x2c
}
 8001e30:	f107 070c 	add.w	r7, r7, #12
 8001e34:	46bd      	mov	sp, r7
 8001e36:	bc80      	pop	{r7}
 8001e38:	4770      	bx	lr
 8001e3a:	bf00      	nop

08001e3c <TIM_GetCounter>:
  * @brief  Gets the TIMx Counter value.
  * @param  TIMx: where x can be 1 to 14 to select the TIM peripheral.
  * @retval Counter Register value
  */
uint32_t TIM_GetCounter(TIM_TypeDef* TIMx)
{
 8001e3c:	b480      	push	{r7}
 8001e3e:	b083      	sub	sp, #12
 8001e40:	af00      	add	r7, sp, #0
 8001e42:	6078      	str	r0, [r7, #4]
  /* Check the parameters */
  assert_param(IS_TIM_ALL_PERIPH(TIMx));

  /* Get the Counter Register value */
  return TIMx->CNT;
 8001e44:	687b      	ldr	r3, [r7, #4]
 8001e46:	6a5b      	ldr	r3, [r3, #36]	; 0x24
}
 8001e48:	4618      	mov	r0, r3
 8001e4a:	f107 070c 	add.w	r7, r7, #12
 8001e4e:	46bd      	mov	sp, r7
 8001e50:	bc80      	pop	{r7}
 8001e52:	4770      	bx	lr

08001e54 <TIM_GetPrescaler>:
  * @brief  Gets the TIMx Prescaler value.
  * @param  TIMx: where x can be 1 to 14 to select the TIM peripheral.
  * @retval Prescaler Register value.
  */
uint16_t TIM_GetPrescaler(TIM_TypeDef* TIMx)
{
 8001e54:	b480      	push	{r7}
 8001e56:	b083      	sub	sp, #12
 8001e58:	af00      	add	r7, sp, #0
 8001e5a:	6078      	str	r0, [r7, #4]
  /* Check the parameters */
  assert_param(IS_TIM_ALL_PERIPH(TIMx));

  /* Get the Prescaler Register value */
  return TIMx->PSC;
 8001e5c:	687b      	ldr	r3, [r7, #4]
 8001e5e:	8d1b      	ldrh	r3, [r3, #40]	; 0x28
 8001e60:	b29b      	uxth	r3, r3
}
 8001e62:	4618      	mov	r0, r3
 8001e64:	f107 070c 	add.w	r7, r7, #12
 8001e68:	46bd      	mov	sp, r7
 8001e6a:	bc80      	pop	{r7}
 8001e6c:	4770      	bx	lr
 8001e6e:	bf00      	nop

08001e70 <TIM_UpdateDisableConfig>:
  * @param  NewState: new state of the TIMx UDIS bit
  *          This parameter can be: ENABLE or DISABLE.
  * @retval None
  */
void TIM_UpdateDisableConfig(TIM_TypeDef* TIMx, FunctionalState NewState)
{
 8001e70:	b480      	push	{r7}
 8001e72:	b083      	sub	sp, #12
 8001e74:	af00      	add	r7, sp, #0
 8001e76:	6078      	str	r0, [r7, #4]
 8001e78:	460b      	mov	r3, r1
 8001e7a:	70fb      	strb	r3, [r7, #3]
  /* Check the parameters */
  assert_param(IS_TIM_ALL_PERIPH(TIMx));
  assert_param(IS_FUNCTIONAL_STATE(NewState));

  if (NewState != DISABLE)
 8001e7c:	78fb      	ldrb	r3, [r7, #3]
 8001e7e:	2b00      	cmp	r3, #0
 8001e80:	d008      	beq.n	8001e94 <TIM_UpdateDisableConfig+0x24>
  {
    /* Set the Update Disable Bit */
    TIMx->CR1 |= TIM_CR1_UDIS;
 8001e82:	687b      	ldr	r3, [r7, #4]
 8001e84:	881b      	ldrh	r3, [r3, #0]
 8001e86:	b29b      	uxth	r3, r3
 8001e88:	f043 0302 	orr.w	r3, r3, #2
 8001e8c:	b29a      	uxth	r2, r3
 8001e8e:	687b      	ldr	r3, [r7, #4]
 8001e90:	801a      	strh	r2, [r3, #0]
 8001e92:	e007      	b.n	8001ea4 <TIM_UpdateDisableConfig+0x34>
  }
  else
  {
    /* Reset the Update Disable Bit */
    TIMx->CR1 &= (uint16_t)~TIM_CR1_UDIS;
 8001e94:	687b      	ldr	r3, [r7, #4]
 8001e96:	881b      	ldrh	r3, [r3, #0]
 8001e98:	b29b      	uxth	r3, r3
 8001e9a:	f023 0302 	bic.w	r3, r3, #2
 8001e9e:	b29a      	uxth	r2, r3
 8001ea0:	687b      	ldr	r3, [r7, #4]
 8001ea2:	801a      	strh	r2, [r3, #0]
  }
}
 8001ea4:	f107 070c 	add.w	r7, r7, #12
 8001ea8:	46bd      	mov	sp, r7
 8001eaa:	bc80      	pop	{r7}
 8001eac:	4770      	bx	lr
 8001eae:	bf00      	nop

08001eb0 <TIM_UpdateRequestConfig>:
  *                 generation through the slave mode controller.
  *            @arg TIM_UpdateSource_Regular: Source of update is counter overflow/underflow.
  * @retval None
  */
void TIM_UpdateRequestConfig(TIM_TypeDef* TIMx, uint16_t TIM_UpdateSource)
{
 8001eb0:	b480      	push	{r7}
 8001eb2:	b083      	sub	sp, #12
 8001eb4:	af00      	add	r7, sp, #0
 8001eb6:	6078      	str	r0, [r7, #4]
 8001eb8:	460b      	mov	r3, r1
 8001eba:	807b      	strh	r3, [r7, #2]
  /* Check the parameters */
  assert_param(IS_TIM_ALL_PERIPH(TIMx));
  assert_param(IS_TIM_UPDATE_SOURCE(TIM_UpdateSource));

  if (TIM_UpdateSource != TIM_UpdateSource_Global)
 8001ebc:	887b      	ldrh	r3, [r7, #2]
 8001ebe:	2b00      	cmp	r3, #0
 8001ec0:	d008      	beq.n	8001ed4 <TIM_UpdateRequestConfig+0x24>
  {
    /* Set the URS Bit */
    TIMx->CR1 |= TIM_CR1_URS;
 8001ec2:	687b      	ldr	r3, [r7, #4]
 8001ec4:	881b      	ldrh	r3, [r3, #0]
 8001ec6:	b29b      	uxth	r3, r3
 8001ec8:	f043 0304 	orr.w	r3, r3, #4
 8001ecc:	b29a      	uxth	r2, r3
 8001ece:	687b      	ldr	r3, [r7, #4]
 8001ed0:	801a      	strh	r2, [r3, #0]
 8001ed2:	e007      	b.n	8001ee4 <TIM_UpdateRequestConfig+0x34>
  }
  else
  {
    /* Reset the URS Bit */
    TIMx->CR1 &= (uint16_t)~TIM_CR1_URS;
 8001ed4:	687b      	ldr	r3, [r7, #4]
 8001ed6:	881b      	ldrh	r3, [r3, #0]
 8001ed8:	b29b      	uxth	r3, r3
 8001eda:	f023 0304 	bic.w	r3, r3, #4
 8001ede:	b29a      	uxth	r2, r3
 8001ee0:	687b      	ldr	r3, [r7, #4]
 8001ee2:	801a      	strh	r2, [r3, #0]
  }
}
 8001ee4:	f107 070c 	add.w	r7, r7, #12
 8001ee8:	46bd      	mov	sp, r7
 8001eea:	bc80      	pop	{r7}
 8001eec:	4770      	bx	lr
 8001eee:	bf00      	nop

08001ef0 <TIM_ARRPreloadConfig>:
  * @param  NewState: new state of the TIMx peripheral Preload register
  *          This parameter can be: ENABLE or DISABLE.
  * @retval None
  */
void TIM_ARRPreloadConfig(TIM_TypeDef* TIMx, FunctionalState NewState)
{
 8001ef0:	b480      	push	{r7}
 8001ef2:	b083      	sub	sp, #12
 8001ef4:	af00      	add	r7, sp, #0
 8001ef6:	6078      	str	r0, [r7, #4]
 8001ef8:	460b      	mov	r3, r1
 8001efa:	70fb      	strb	r3, [r7, #3]
  /* Check the parameters */
  assert_param(IS_TIM_ALL_PERIPH(TIMx));
  assert_param(IS_FUNCTIONAL_STATE(NewState));

  if (NewState != DISABLE)
 8001efc:	78fb      	ldrb	r3, [r7, #3]
 8001efe:	2b00      	cmp	r3, #0
 8001f00:	d008      	beq.n	8001f14 <TIM_ARRPreloadConfig+0x24>
  {
    /* Set the ARR Preload Bit */
    TIMx->CR1 |= TIM_CR1_ARPE;
 8001f02:	687b      	ldr	r3, [r7, #4]
 8001f04:	881b      	ldrh	r3, [r3, #0]
 8001f06:	b29b      	uxth	r3, r3
 8001f08:	f043 0380 	orr.w	r3, r3, #128	; 0x80
 8001f0c:	b29a      	uxth	r2, r3
 8001f0e:	687b      	ldr	r3, [r7, #4]
 8001f10:	801a      	strh	r2, [r3, #0]
 8001f12:	e007      	b.n	8001f24 <TIM_ARRPreloadConfig+0x34>
  }
  else
  {
    /* Reset the ARR Preload Bit */
    TIMx->CR1 &= (uint16_t)~TIM_CR1_ARPE;
 8001f14:	687b      	ldr	r3, [r7, #4]
 8001f16:	881b      	ldrh	r3, [r3, #0]
 8001f18:	b29b      	uxth	r3, r3
 8001f1a:	f023 0380 	bic.w	r3, r3, #128	; 0x80
 8001f1e:	b29a      	uxth	r2, r3
 8001f20:	687b      	ldr	r3, [r7, #4]
 8001f22:	801a      	strh	r2, [r3, #0]
  }
}
 8001f24:	f107 070c 	add.w	r7, r7, #12
 8001f28:	46bd      	mov	sp, r7
 8001f2a:	bc80      	pop	{r7}
 8001f2c:	4770      	bx	lr
 8001f2e:	bf00      	nop

08001f30 <TIM_SelectOnePulseMode>:
  *            @arg TIM_OPMode_Single
  *            @arg TIM_OPMode_Repetitive
  * @retval None
  */
void TIM_SelectOnePulseMode(TIM_TypeDef* TIMx, uint16_t TIM_OPMode)
{
 8001f30:	b480      	push	{r7}
 8001f32:	b083      	sub	sp, #12
 8001f34:	af00      	add	r7, sp, #0
 8001f36:	6078      	str	r0, [r7, #4]
 8001f38:	460b      	mov	r3, r1
 8001f3a:	807b      	strh	r3, [r7, #2]
  /* Check the parameters */
  assert_param(IS_TIM_ALL_PERIPH(TIMx));
  assert_param(IS_TIM_OPM_MODE(TIM_OPMode));

  /* Reset the OPM Bit */
  TIMx->CR1 &= (uint16_t)~TIM_CR1_OPM;
 8001f3c:	687b      	ldr	r3, [r7, #4]
 8001f3e:	881b      	ldrh	r3, [r3, #0]
 8001f40:	b29b      	uxth	r3, r3
 8001f42:	f023 0308 	bic.w	r3, r3, #8
 8001f46:	b29a      	uxth	r2, r3
 8001f48:	687b      	ldr	r3, [r7, #4]
 8001f4a:	801a      	strh	r2, [r3, #0]

  /* Configure the OPM Mode */
  TIMx->CR1 |= TIM_OPMode;
 8001f4c:	687b      	ldr	r3, [r7, #4]
 8001f4e:	881b      	ldrh	r3, [r3, #0]
 8001f50:	b29a      	uxth	r2, r3
 8001f52:	887b      	ldrh	r3, [r7, #2]
 8001f54:	4313      	orrs	r3, r2
 8001f56:	b29a      	uxth	r2, r3
 8001f58:	687b      	ldr	r3, [r7, #4]
 8001f5a:	801a      	strh	r2, [r3, #0]
}
 8001f5c:	f107 070c 	add.w	r7, r7, #12
 8001f60:	46bd      	mov	sp, r7
 8001f62:	bc80      	pop	{r7}
 8001f64:	4770      	bx	lr
 8001f66:	bf00      	nop

08001f68 <TIM_SetClockDivision>:
  *            @arg TIM_CKD_DIV2: TDTS = 2*Tck_tim
  *            @arg TIM_CKD_DIV4: TDTS = 4*Tck_tim
  * @retval None
  */
void TIM_SetClockDivision(TIM_TypeDef* TIMx, uint16_t TIM_CKD)
{
 8001f68:	b480      	push	{r7}
 8001f6a:	b083      	sub	sp, #12
 8001f6c:	af00      	add	r7, sp, #0
 8001f6e:	6078      	str	r0, [r7, #4]
 8001f70:	460b      	mov	r3, r1
 8001f72:	807b      	strh	r3, [r7, #2]
  /* Check the parameters */
  assert_param(IS_TIM_LIST1_PERIPH(TIMx));
  assert_param(IS_TIM_CKD_DIV(TIM_CKD));

  /* Reset the CKD Bits */
  TIMx->CR1 &= (uint16_t)(~TIM_CR1_CKD);
 8001f74:	687b      	ldr	r3, [r7, #4]
 8001f76:	881b      	ldrh	r3, [r3, #0]
 8001f78:	b29b      	uxth	r3, r3
 8001f7a:	f423 7340 	bic.w	r3, r3, #768	; 0x300
 8001f7e:	b29a      	uxth	r2, r3
 8001f80:	687b      	ldr	r3, [r7, #4]
 8001f82:	801a      	strh	r2, [r3, #0]

  /* Set the CKD value */
  TIMx->CR1 |= TIM_CKD;
 8001f84:	687b      	ldr	r3, [r7, #4]
 8001f86:	881b      	ldrh	r3, [r3, #0]
 8001f88:	b29a      	uxth	r2, r3
 8001f8a:	887b      	ldrh	r3, [r7, #2]
 8001f8c:	4313      	orrs	r3, r2
 8001f8e:	b29a      	uxth	r2, r3
 8001f90:	687b      	ldr	r3, [r7, #4]
 8001f92:	801a      	strh	r2, [r3, #0]
}
 8001f94:	f107 070c 	add.w	r7, r7, #12
 8001f98:	46bd      	mov	sp, r7
 8001f9a:	bc80      	pop	{r7}
 8001f9c:	4770      	bx	lr
 8001f9e:	bf00      	nop

08001fa0 <TIM_Cmd>:
  * @param  NewState: new state of the TIMx peripheral.
  *          This parameter can be: ENABLE or DISABLE.
  * @retval None
  */
void TIM_Cmd(TIM_TypeDef* TIMx, FunctionalState NewState)
{
 8001fa0:	b480      	push	{r7}
 8001fa2:	b083      	sub	sp, #12
 8001fa4:	af00      	add	r7, sp, #0
 8001fa6:	6078      	str	r0, [r7, #4]
 8001fa8:	460b      	mov	r3, r1
 8001faa:	70fb      	strb	r3, [r7, #3]
  /* Check the parameters */
  assert_param(IS_TIM_ALL_PERIPH(TIMx)); 
  assert_param(IS_FUNCTIONAL_STATE(NewState));
  
  if (NewState != DISABLE)
 8001fac:	78fb      	ldrb	r3, [r7, #3]
 8001fae:	2b00      	cmp	r3, #0
 8001fb0:	d008      	beq.n	8001fc4 <TIM_Cmd+0x24>
  {
    /* Enable the TIM Counter */
    TIMx->CR1 |= TIM_CR1_CEN;
 8001fb2:	687b      	ldr	r3, [r7, #4]
 8001fb4:	881b      	ldrh	r3, [r3, #0]
 8001fb6:	b29b      	uxth	r3, r3
 8001fb8:	f043 0301 	orr.w	r3, r3, #1
 8001fbc:	b29a      	uxth	r2, r3
 8001fbe:	687b      	ldr	r3, [r7, #4]
 8001fc0:	801a      	strh	r2, [r3, #0]
 8001fc2:	e007      	b.n	8001fd4 <TIM_Cmd+0x34>
  }
  else
  {
    /* Disable the TIM Counter */
    TIMx->CR1 &= (uint16_t)~TIM_CR1_CEN;
 8001fc4:	687b      	ldr	r3, [r7, #4]
 8001fc6:	881b      	ldrh	r3, [r3, #0]
 8001fc8:	b29b      	uxth	r3, r3
 8001fca:	f023 0301 	bic.w	r3, r3, #1
 8001fce:	b29a      	uxth	r2, r3
 8001fd0:	687b      	ldr	r3, [r7, #4]
 8001fd2:	801a      	strh	r2, [r3, #0]
  }
}
 8001fd4:	f107 070c 	add.w	r7, r7, #12
 8001fd8:	46bd      	mov	sp, r7
 8001fda:	bc80      	pop	{r7}
 8001fdc:	4770      	bx	lr
 8001fde:	bf00      	nop

08001fe0 <TIM_OC1Init>:
  * @param  TIM_OCInitStruct: pointer to a TIM_OCInitTypeDef structure that contains
  *         the configuration information for the specified TIM peripheral.
  * @retval None
  */
void TIM_OC1Init(TIM_TypeDef* TIMx, TIM_OCInitTypeDef* TIM_OCInitStruct)
{
 8001fe0:	b480      	push	{r7}
 8001fe2:	b085      	sub	sp, #20
 8001fe4:	af00      	add	r7, sp, #0
 8001fe6:	6078      	str	r0, [r7, #4]
 8001fe8:	6039      	str	r1, [r7, #0]
  uint16_t tmpccmrx = 0, tmpccer = 0, tmpcr2 = 0;
 8001fea:	f04f 0300 	mov.w	r3, #0
 8001fee:	817b      	strh	r3, [r7, #10]
 8001ff0:	f04f 0300 	mov.w	r3, #0
 8001ff4:	81fb      	strh	r3, [r7, #14]
 8001ff6:	f04f 0300 	mov.w	r3, #0
 8001ffa:	81bb      	strh	r3, [r7, #12]
  assert_param(IS_TIM_OC_MODE(TIM_OCInitStruct->TIM_OCMode));
  assert_param(IS_TIM_OUTPUT_STATE(TIM_OCInitStruct->TIM_OutputState));
  assert_param(IS_TIM_OC_POLARITY(TIM_OCInitStruct->TIM_OCPolarity));   

  /* Disable the Channel 1: Reset the CC1E Bit */
  TIMx->CCER &= (uint16_t)~TIM_CCER_CC1E;
 8001ffc:	687b      	ldr	r3, [r7, #4]
 8001ffe:	8c1b      	ldrh	r3, [r3, #32]
 8002000:	b29b      	uxth	r3, r3
 8002002:	f023 0301 	bic.w	r3, r3, #1
 8002006:	b29a      	uxth	r2, r3
 8002008:	687b      	ldr	r3, [r7, #4]
 800200a:	841a      	strh	r2, [r3, #32]
  
  /* Get the TIMx CCER register value */
  tmpccer = TIMx->CCER;
 800200c:	687b      	ldr	r3, [r7, #4]
 800200e:	8c1b      	ldrh	r3, [r3, #32]
 8002010:	81fb      	strh	r3, [r7, #14]
  /* Get the TIMx CR2 register value */
  tmpcr2 =  TIMx->CR2;
 8002012:	687b      	ldr	r3, [r7, #4]
 8002014:	889b      	ldrh	r3, [r3, #4]
 8002016:	81bb      	strh	r3, [r7, #12]
  
  /* Get the TIMx CCMR1 register value */
  tmpccmrx = TIMx->CCMR1;
 8002018:	687b      	ldr	r3, [r7, #4]
 800201a:	8b1b      	ldrh	r3, [r3, #24]
 800201c:	817b      	strh	r3, [r7, #10]
    
  /* Reset the Output Compare Mode Bits */
  tmpccmrx &= (uint16_t)~TIM_CCMR1_OC1M;
 800201e:	897b      	ldrh	r3, [r7, #10]
 8002020:	f023 0370 	bic.w	r3, r3, #112	; 0x70
 8002024:	817b      	strh	r3, [r7, #10]
  tmpccmrx &= (uint16_t)~TIM_CCMR1_CC1S;
 8002026:	897b      	ldrh	r3, [r7, #10]
 8002028:	f023 0303 	bic.w	r3, r3, #3
 800202c:	817b      	strh	r3, [r7, #10]
  /* Select the Output Compare Mode */
  tmpccmrx |= TIM_OCInitStruct->TIM_OCMode;
 800202e:	683b      	ldr	r3, [r7, #0]
 8002030:	881a      	ldrh	r2, [r3, #0]
 8002032:	897b      	ldrh	r3, [r7, #10]
 8002034:	4313      	orrs	r3, r2
 8002036:	817b      	strh	r3, [r7, #10]
  
  /* Reset the Output Polarity level */
  tmpccer &= (uint16_t)~TIM_CCER_CC1P;
 8002038:	89fb      	ldrh	r3, [r7, #14]
 800203a:	f023 0302 	bic.w	r3, r3, #2
 800203e:	81fb      	strh	r3, [r7, #14]
  /* Set the Output Compare Polarity */
  tmpccer |= TIM_OCInitStruct->TIM_OCPolarity;
 8002040:	683b      	ldr	r3, [r7, #0]
 8002042:	899a      	ldrh	r2, [r3, #12]
 8002044:	89fb      	ldrh	r3, [r7, #14]
 8002046:	4313      	orrs	r3, r2
 8002048:	81fb      	strh	r3, [r7, #14]
  
  /* Set the Output State */
  tmpccer |= TIM_OCInitStruct->TIM_OutputState;
 800204a:	683b      	ldr	r3, [r7, #0]
 800204c:	885a      	ldrh	r2, [r3, #2]
 800204e:	89fb      	ldrh	r3, [r7, #14]
 8002050:	4313      	orrs	r3, r2
 8002052:	81fb      	strh	r3, [r7, #14]
    
  if((TIMx == TIM1) || (TIMx == TIM8))
 8002054:	687a      	ldr	r2, [r7, #4]
 8002056:	f04f 0300 	mov.w	r3, #0
 800205a:	f2c4 0301 	movt	r3, #16385	; 0x4001
 800205e:	429a      	cmp	r2, r3
 8002060:	d006      	beq.n	8002070 <TIM_OC1Init+0x90>
 8002062:	687a      	ldr	r2, [r7, #4]
 8002064:	f44f 6380 	mov.w	r3, #1024	; 0x400
 8002068:	f2c4 0301 	movt	r3, #16385	; 0x4001
 800206c:	429a      	cmp	r2, r3
 800206e:	d123      	bne.n	80020b8 <TIM_OC1Init+0xd8>
    assert_param(IS_TIM_OCN_POLARITY(TIM_OCInitStruct->TIM_OCNPolarity));
    assert_param(IS_TIM_OCNIDLE_STATE(TIM_OCInitStruct->TIM_OCNIdleState));
    assert_param(IS_TIM_OCIDLE_STATE(TIM_OCInitStruct->TIM_OCIdleState));
    
    /* Reset the Output N Polarity level */
    tmpccer &= (uint16_t)~TIM_CCER_CC1NP;
 8002070:	89fb      	ldrh	r3, [r7, #14]
 8002072:	f023 0308 	bic.w	r3, r3, #8
 8002076:	81fb      	strh	r3, [r7, #14]
    /* Set the Output N Polarity */
    tmpccer |= TIM_OCInitStruct->TIM_OCNPolarity;
 8002078:	683b      	ldr	r3, [r7, #0]
 800207a:	89da      	ldrh	r2, [r3, #14]
 800207c:	89fb      	ldrh	r3, [r7, #14]
 800207e:	4313      	orrs	r3, r2
 8002080:	81fb      	strh	r3, [r7, #14]
    /* Reset the Output N State */
    tmpccer &= (uint16_t)~TIM_CCER_CC1NE;
 8002082:	89fb      	ldrh	r3, [r7, #14]
 8002084:	f023 0304 	bic.w	r3, r3, #4
 8002088:	81fb      	strh	r3, [r7, #14]
    
    /* Set the Output N State */
    tmpccer |= TIM_OCInitStruct->TIM_OutputNState;
 800208a:	683b      	ldr	r3, [r7, #0]
 800208c:	889a      	ldrh	r2, [r3, #4]
 800208e:	89fb      	ldrh	r3, [r7, #14]
 8002090:	4313      	orrs	r3, r2
 8002092:	81fb      	strh	r3, [r7, #14]
    /* Reset the Output Compare and Output Compare N IDLE State */
    tmpcr2 &= (uint16_t)~TIM_CR2_OIS1;
 8002094:	89bb      	ldrh	r3, [r7, #12]
 8002096:	f423 7380 	bic.w	r3, r3, #256	; 0x100
 800209a:	81bb      	strh	r3, [r7, #12]
    tmpcr2 &= (uint16_t)~TIM_CR2_OIS1N;
 800209c:	89bb      	ldrh	r3, [r7, #12]
 800209e:	f423 7300 	bic.w	r3, r3, #512	; 0x200
 80020a2:	81bb      	strh	r3, [r7, #12]
    /* Set the Output Idle state */
    tmpcr2 |= TIM_OCInitStruct->TIM_OCIdleState;
 80020a4:	683b      	ldr	r3, [r7, #0]
 80020a6:	8a1a      	ldrh	r2, [r3, #16]
 80020a8:	89bb      	ldrh	r3, [r7, #12]
 80020aa:	4313      	orrs	r3, r2
 80020ac:	81bb      	strh	r3, [r7, #12]
    /* Set the Output N Idle state */
    tmpcr2 |= TIM_OCInitStruct->TIM_OCNIdleState;
 80020ae:	683b      	ldr	r3, [r7, #0]
 80020b0:	8a5a      	ldrh	r2, [r3, #18]
 80020b2:	89bb      	ldrh	r3, [r7, #12]
 80020b4:	4313      	orrs	r3, r2
 80020b6:	81bb      	strh	r3, [r7, #12]
  }
  /* Write to TIMx CR2 */
  TIMx->CR2 = tmpcr2;
 80020b8:	687b      	ldr	r3, [r7, #4]
 80020ba:	89ba      	ldrh	r2, [r7, #12]
 80020bc:	809a      	strh	r2, [r3, #4]
  
  /* Write to TIMx CCMR1 */
  TIMx->CCMR1 = tmpccmrx;
 80020be:	687b      	ldr	r3, [r7, #4]
 80020c0:	897a      	ldrh	r2, [r7, #10]
 80020c2:	831a      	strh	r2, [r3, #24]
  
  /* Set the Capture Compare Register value */
  TIMx->CCR1 = TIM_OCInitStruct->TIM_Pulse;
 80020c4:	683b      	ldr	r3, [r7, #0]
 80020c6:	689a      	ldr	r2, [r3, #8]
 80020c8:	687b      	ldr	r3, [r7, #4]
 80020ca:	635a      	str	r2, [r3, #52]	; 0x34
  
  /* Write to TIMx CCER */
  TIMx->CCER = tmpccer;
 80020cc:	687b      	ldr	r3, [r7, #4]
 80020ce:	89fa      	ldrh	r2, [r7, #14]
 80020d0:	841a      	strh	r2, [r3, #32]
}
 80020d2:	f107 0714 	add.w	r7, r7, #20
 80020d6:	46bd      	mov	sp, r7
 80020d8:	bc80      	pop	{r7}
 80020da:	4770      	bx	lr

080020dc <TIM_OC2Init>:
  * @param  TIM_OCInitStruct: pointer to a TIM_OCInitTypeDef structure that contains
  *         the configuration information for the specified TIM peripheral.
  * @retval None
  */
void TIM_OC2Init(TIM_TypeDef* TIMx, TIM_OCInitTypeDef* TIM_OCInitStruct)
{
 80020dc:	b480      	push	{r7}
 80020de:	b085      	sub	sp, #20
 80020e0:	af00      	add	r7, sp, #0
 80020e2:	6078      	str	r0, [r7, #4]
 80020e4:	6039      	str	r1, [r7, #0]
  uint16_t tmpccmrx = 0, tmpccer = 0, tmpcr2 = 0;
 80020e6:	f04f 0300 	mov.w	r3, #0
 80020ea:	817b      	strh	r3, [r7, #10]
 80020ec:	f04f 0300 	mov.w	r3, #0
 80020f0:	81fb      	strh	r3, [r7, #14]
 80020f2:	f04f 0300 	mov.w	r3, #0
 80020f6:	81bb      	strh	r3, [r7, #12]
  assert_param(IS_TIM_OC_MODE(TIM_OCInitStruct->TIM_OCMode));
  assert_param(IS_TIM_OUTPUT_STATE(TIM_OCInitStruct->TIM_OutputState));
  assert_param(IS_TIM_OC_POLARITY(TIM_OCInitStruct->TIM_OCPolarity));   

  /* Disable the Channel 2: Reset the CC2E Bit */
  TIMx->CCER &= (uint16_t)~TIM_CCER_CC2E;
 80020f8:	687b      	ldr	r3, [r7, #4]
 80020fa:	8c1b      	ldrh	r3, [r3, #32]
 80020fc:	b29b      	uxth	r3, r3
 80020fe:	f023 0310 	bic.w	r3, r3, #16
 8002102:	b29a      	uxth	r2, r3
 8002104:	687b      	ldr	r3, [r7, #4]
 8002106:	841a      	strh	r2, [r3, #32]
  
  /* Get the TIMx CCER register value */  
  tmpccer = TIMx->CCER;
 8002108:	687b      	ldr	r3, [r7, #4]
 800210a:	8c1b      	ldrh	r3, [r3, #32]
 800210c:	81fb      	strh	r3, [r7, #14]
  /* Get the TIMx CR2 register value */
  tmpcr2 =  TIMx->CR2;
 800210e:	687b      	ldr	r3, [r7, #4]
 8002110:	889b      	ldrh	r3, [r3, #4]
 8002112:	81bb      	strh	r3, [r7, #12]
  
  /* Get the TIMx CCMR1 register value */
  tmpccmrx = TIMx->CCMR1;
 8002114:	687b      	ldr	r3, [r7, #4]
 8002116:	8b1b      	ldrh	r3, [r3, #24]
 8002118:	817b      	strh	r3, [r7, #10]
    
  /* Reset the Output Compare mode and Capture/Compare selection Bits */
  tmpccmrx &= (uint16_t)~TIM_CCMR1_OC2M;
 800211a:	897b      	ldrh	r3, [r7, #10]
 800211c:	f423 43e0 	bic.w	r3, r3, #28672	; 0x7000
 8002120:	817b      	strh	r3, [r7, #10]
  tmpccmrx &= (uint16_t)~TIM_CCMR1_CC2S;
 8002122:	897b      	ldrh	r3, [r7, #10]
 8002124:	f423 7340 	bic.w	r3, r3, #768	; 0x300
 8002128:	817b      	strh	r3, [r7, #10]
  
  /* Select the Output Compare Mode */
  tmpccmrx |= (uint16_t)(TIM_OCInitStruct->TIM_OCMode << 8);
 800212a:	683b      	ldr	r3, [r7, #0]
 800212c:	881b      	ldrh	r3, [r3, #0]
 800212e:	ea4f 2303 	mov.w	r3, r3, lsl #8
 8002132:	b29a      	uxth	r2, r3
 8002134:	897b      	ldrh	r3, [r7, #10]
 8002136:	4313      	orrs	r3, r2
 8002138:	817b      	strh	r3, [r7, #10]
  
  /* Reset the Output Polarity level */
  tmpccer &= (uint16_t)~TIM_CCER_CC2P;
 800213a:	89fb      	ldrh	r3, [r7, #14]
 800213c:	f023 0320 	bic.w	r3, r3, #32
 8002140:	81fb      	strh	r3, [r7, #14]
  /* Set the Output Compare Polarity */
  tmpccer |= (uint16_t)(TIM_OCInitStruct->TIM_OCPolarity << 4);
 8002142:	683b      	ldr	r3, [r7, #0]
 8002144:	899b      	ldrh	r3, [r3, #12]
 8002146:	ea4f 1303 	mov.w	r3, r3, lsl #4
 800214a:	b29a      	uxth	r2, r3
 800214c:	89fb      	ldrh	r3, [r7, #14]
 800214e:	4313      	orrs	r3, r2
 8002150:	81fb      	strh	r3, [r7, #14]
  
  /* Set the Output State */
  tmpccer |= (uint16_t)(TIM_OCInitStruct->TIM_OutputState << 4);
 8002152:	683b      	ldr	r3, [r7, #0]
 8002154:	885b      	ldrh	r3, [r3, #2]
 8002156:	ea4f 1303 	mov.w	r3, r3, lsl #4
 800215a:	b29a      	uxth	r2, r3
 800215c:	89fb      	ldrh	r3, [r7, #14]
 800215e:	4313      	orrs	r3, r2
 8002160:	81fb      	strh	r3, [r7, #14]
    
  if((TIMx == TIM1) || (TIMx == TIM8))
 8002162:	687a      	ldr	r2, [r7, #4]
 8002164:	f04f 0300 	mov.w	r3, #0
 8002168:	f2c4 0301 	movt	r3, #16385	; 0x4001
 800216c:	429a      	cmp	r2, r3
 800216e:	d006      	beq.n	800217e <TIM_OC2Init+0xa2>
 8002170:	687a      	ldr	r2, [r7, #4]
 8002172:	f44f 6380 	mov.w	r3, #1024	; 0x400
 8002176:	f2c4 0301 	movt	r3, #16385	; 0x4001
 800217a:	429a      	cmp	r2, r3
 800217c:	d12f      	bne.n	80021de <TIM_OC2Init+0x102>
    assert_param(IS_TIM_OCN_POLARITY(TIM_OCInitStruct->TIM_OCNPolarity));
    assert_param(IS_TIM_OCNIDLE_STATE(TIM_OCInitStruct->TIM_OCNIdleState));
    assert_param(IS_TIM_OCIDLE_STATE(TIM_OCInitStruct->TIM_OCIdleState));
    
    /* Reset the Output N Polarity level */
    tmpccer &= (uint16_t)~TIM_CCER_CC2NP;
 800217e:	89fb      	ldrh	r3, [r7, #14]
 8002180:	f023 0380 	bic.w	r3, r3, #128	; 0x80
 8002184:	81fb      	strh	r3, [r7, #14]
    /* Set the Output N Polarity */
    tmpccer |= (uint16_t)(TIM_OCInitStruct->TIM_OCNPolarity << 4);
 8002186:	683b      	ldr	r3, [r7, #0]
 8002188:	89db      	ldrh	r3, [r3, #14]
 800218a:	ea4f 1303 	mov.w	r3, r3, lsl #4
 800218e:	b29a      	uxth	r2, r3
 8002190:	89fb      	ldrh	r3, [r7, #14]
 8002192:	4313      	orrs	r3, r2
 8002194:	81fb      	strh	r3, [r7, #14]
    /* Reset the Output N State */
    tmpccer &= (uint16_t)~TIM_CCER_CC2NE;
 8002196:	89fb      	ldrh	r3, [r7, #14]
 8002198:	f023 0340 	bic.w	r3, r3, #64	; 0x40
 800219c:	81fb      	strh	r3, [r7, #14]
    
    /* Set the Output N State */
    tmpccer |= (uint16_t)(TIM_OCInitStruct->TIM_OutputNState << 4);
 800219e:	683b      	ldr	r3, [r7, #0]
 80021a0:	889b      	ldrh	r3, [r3, #4]
 80021a2:	ea4f 1303 	mov.w	r3, r3, lsl #4
 80021a6:	b29a      	uxth	r2, r3
 80021a8:	89fb      	ldrh	r3, [r7, #14]
 80021aa:	4313      	orrs	r3, r2
 80021ac:	81fb      	strh	r3, [r7, #14]
    /* Reset the Output Compare and Output Compare N IDLE State */
    tmpcr2 &= (uint16_t)~TIM_CR2_OIS2;
 80021ae:	89bb      	ldrh	r3, [r7, #12]
 80021b0:	f423 6380 	bic.w	r3, r3, #1024	; 0x400
 80021b4:	81bb      	strh	r3, [r7, #12]
    tmpcr2 &= (uint16_t)~TIM_CR2_OIS2N;
 80021b6:	89bb      	ldrh	r3, [r7, #12]
 80021b8:	f423 6300 	bic.w	r3, r3, #2048	; 0x800
 80021bc:	81bb      	strh	r3, [r7, #12]
    /* Set the Output Idle state */
    tmpcr2 |= (uint16_t)(TIM_OCInitStruct->TIM_OCIdleState << 2);
 80021be:	683b      	ldr	r3, [r7, #0]
 80021c0:	8a1b      	ldrh	r3, [r3, #16]
 80021c2:	ea4f 0383 	mov.w	r3, r3, lsl #2
 80021c6:	b29a      	uxth	r2, r3
 80021c8:	89bb      	ldrh	r3, [r7, #12]
 80021ca:	4313      	orrs	r3, r2
 80021cc:	81bb      	strh	r3, [r7, #12]
    /* Set the Output N Idle state */
    tmpcr2 |= (uint16_t)(TIM_OCInitStruct->TIM_OCNIdleState << 2);
 80021ce:	683b      	ldr	r3, [r7, #0]
 80021d0:	8a5b      	ldrh	r3, [r3, #18]
 80021d2:	ea4f 0383 	mov.w	r3, r3, lsl #2
 80021d6:	b29a      	uxth	r2, r3
 80021d8:	89bb      	ldrh	r3, [r7, #12]
 80021da:	4313      	orrs	r3, r2
 80021dc:	81bb      	strh	r3, [r7, #12]
  }
  /* Write to TIMx CR2 */
  TIMx->CR2 = tmpcr2;
 80021de:	687b      	ldr	r3, [r7, #4]
 80021e0:	89ba      	ldrh	r2, [r7, #12]
 80021e2:	809a      	strh	r2, [r3, #4]
  
  /* Write to TIMx CCMR1 */
  TIMx->CCMR1 = tmpccmrx;
 80021e4:	687b      	ldr	r3, [r7, #4]
 80021e6:	897a      	ldrh	r2, [r7, #10]
 80021e8:	831a      	strh	r2, [r3, #24]
  
  /* Set the Capture Compare Register value */
  TIMx->CCR2 = TIM_OCInitStruct->TIM_Pulse;
 80021ea:	683b      	ldr	r3, [r7, #0]
 80021ec:	689a      	ldr	r2, [r3, #8]
 80021ee:	687b      	ldr	r3, [r7, #4]
 80021f0:	639a      	str	r2, [r3, #56]	; 0x38
  
  /* Write to TIMx CCER */
  TIMx->CCER = tmpccer;
 80021f2:	687b      	ldr	r3, [r7, #4]
 80021f4:	89fa      	ldrh	r2, [r7, #14]
 80021f6:	841a      	strh	r2, [r3, #32]
}
 80021f8:	f107 0714 	add.w	r7, r7, #20
 80021fc:	46bd      	mov	sp, r7
 80021fe:	bc80      	pop	{r7}
 8002200:	4770      	bx	lr
 8002202:	bf00      	nop

08002204 <TIM_OC3Init>:
  * @param  TIM_OCInitStruct: pointer to a TIM_OCInitTypeDef structure that contains
  *         the configuration information for the specified TIM peripheral.
  * @retval None
  */
void TIM_OC3Init(TIM_TypeDef* TIMx, TIM_OCInitTypeDef* TIM_OCInitStruct)
{
 8002204:	b480      	push	{r7}
 8002206:	b085      	sub	sp, #20
 8002208:	af00      	add	r7, sp, #0
 800220a:	6078      	str	r0, [r7, #4]
 800220c:	6039      	str	r1, [r7, #0]
  uint16_t tmpccmrx = 0, tmpccer = 0, tmpcr2 = 0;
 800220e:	f04f 0300 	mov.w	r3, #0
 8002212:	817b      	strh	r3, [r7, #10]
 8002214:	f04f 0300 	mov.w	r3, #0
 8002218:	81fb      	strh	r3, [r7, #14]
 800221a:	f04f 0300 	mov.w	r3, #0
 800221e:	81bb      	strh	r3, [r7, #12]
  assert_param(IS_TIM_OC_MODE(TIM_OCInitStruct->TIM_OCMode));
  assert_param(IS_TIM_OUTPUT_STATE(TIM_OCInitStruct->TIM_OutputState));
  assert_param(IS_TIM_OC_POLARITY(TIM_OCInitStruct->TIM_OCPolarity));   

  /* Disable the Channel 3: Reset the CC2E Bit */
  TIMx->CCER &= (uint16_t)~TIM_CCER_CC3E;
 8002220:	687b      	ldr	r3, [r7, #4]
 8002222:	8c1b      	ldrh	r3, [r3, #32]
 8002224:	b29b      	uxth	r3, r3
 8002226:	f423 7380 	bic.w	r3, r3, #256	; 0x100
 800222a:	b29a      	uxth	r2, r3
 800222c:	687b      	ldr	r3, [r7, #4]
 800222e:	841a      	strh	r2, [r3, #32]
  
  /* Get the TIMx CCER register value */
  tmpccer = TIMx->CCER;
 8002230:	687b      	ldr	r3, [r7, #4]
 8002232:	8c1b      	ldrh	r3, [r3, #32]
 8002234:	81fb      	strh	r3, [r7, #14]
  /* Get the TIMx CR2 register value */
  tmpcr2 =  TIMx->CR2;
 8002236:	687b      	ldr	r3, [r7, #4]
 8002238:	889b      	ldrh	r3, [r3, #4]
 800223a:	81bb      	strh	r3, [r7, #12]
  
  /* Get the TIMx CCMR2 register value */
  tmpccmrx = TIMx->CCMR2;
 800223c:	687b      	ldr	r3, [r7, #4]
 800223e:	8b9b      	ldrh	r3, [r3, #28]
 8002240:	817b      	strh	r3, [r7, #10]
    
  /* Reset the Output Compare mode and Capture/Compare selection Bits */
  tmpccmrx &= (uint16_t)~TIM_CCMR2_OC3M;
 8002242:	897b      	ldrh	r3, [r7, #10]
 8002244:	f023 0370 	bic.w	r3, r3, #112	; 0x70
 8002248:	817b      	strh	r3, [r7, #10]
  tmpccmrx &= (uint16_t)~TIM_CCMR2_CC3S;  
 800224a:	897b      	ldrh	r3, [r7, #10]
 800224c:	f023 0303 	bic.w	r3, r3, #3
 8002250:	817b      	strh	r3, [r7, #10]
  /* Select the Output Compare Mode */
  tmpccmrx |= TIM_OCInitStruct->TIM_OCMode;
 8002252:	683b      	ldr	r3, [r7, #0]
 8002254:	881a      	ldrh	r2, [r3, #0]
 8002256:	897b      	ldrh	r3, [r7, #10]
 8002258:	4313      	orrs	r3, r2
 800225a:	817b      	strh	r3, [r7, #10]
  
  /* Reset the Output Polarity level */
  tmpccer &= (uint16_t)~TIM_CCER_CC3P;
 800225c:	89fb      	ldrh	r3, [r7, #14]
 800225e:	f423 7300 	bic.w	r3, r3, #512	; 0x200
 8002262:	81fb      	strh	r3, [r7, #14]
  /* Set the Output Compare Polarity */
  tmpccer |= (uint16_t)(TIM_OCInitStruct->TIM_OCPolarity << 8);
 8002264:	683b      	ldr	r3, [r7, #0]
 8002266:	899b      	ldrh	r3, [r3, #12]
 8002268:	ea4f 2303 	mov.w	r3, r3, lsl #8
 800226c:	b29a      	uxth	r2, r3
 800226e:	89fb      	ldrh	r3, [r7, #14]
 8002270:	4313      	orrs	r3, r2
 8002272:	81fb      	strh	r3, [r7, #14]
  
  /* Set the Output State */
  tmpccer |= (uint16_t)(TIM_OCInitStruct->TIM_OutputState << 8);
 8002274:	683b      	ldr	r3, [r7, #0]
 8002276:	885b      	ldrh	r3, [r3, #2]
 8002278:	ea4f 2303 	mov.w	r3, r3, lsl #8
 800227c:	b29a      	uxth	r2, r3
 800227e:	89fb      	ldrh	r3, [r7, #14]
 8002280:	4313      	orrs	r3, r2
 8002282:	81fb      	strh	r3, [r7, #14]
    
  if((TIMx == TIM1) || (TIMx == TIM8))
 8002284:	687a      	ldr	r2, [r7, #4]
 8002286:	f04f 0300 	mov.w	r3, #0
 800228a:	f2c4 0301 	movt	r3, #16385	; 0x4001
 800228e:	429a      	cmp	r2, r3
 8002290:	d006      	beq.n	80022a0 <TIM_OC3Init+0x9c>
 8002292:	687a      	ldr	r2, [r7, #4]
 8002294:	f44f 6380 	mov.w	r3, #1024	; 0x400
 8002298:	f2c4 0301 	movt	r3, #16385	; 0x4001
 800229c:	429a      	cmp	r2, r3
 800229e:	d12f      	bne.n	8002300 <TIM_OC3Init+0xfc>
    assert_param(IS_TIM_OCN_POLARITY(TIM_OCInitStruct->TIM_OCNPolarity));
    assert_param(IS_TIM_OCNIDLE_STATE(TIM_OCInitStruct->TIM_OCNIdleState));
    assert_param(IS_TIM_OCIDLE_STATE(TIM_OCInitStruct->TIM_OCIdleState));
    
    /* Reset the Output N Polarity level */
    tmpccer &= (uint16_t)~TIM_CCER_CC3NP;
 80022a0:	89fb      	ldrh	r3, [r7, #14]
 80022a2:	f423 6300 	bic.w	r3, r3, #2048	; 0x800
 80022a6:	81fb      	strh	r3, [r7, #14]
    /* Set the Output N Polarity */
    tmpccer |= (uint16_t)(TIM_OCInitStruct->TIM_OCNPolarity << 8);
 80022a8:	683b      	ldr	r3, [r7, #0]
 80022aa:	89db      	ldrh	r3, [r3, #14]
 80022ac:	ea4f 2303 	mov.w	r3, r3, lsl #8
 80022b0:	b29a      	uxth	r2, r3
 80022b2:	89fb      	ldrh	r3, [r7, #14]
 80022b4:	4313      	orrs	r3, r2
 80022b6:	81fb      	strh	r3, [r7, #14]
    /* Reset the Output N State */
    tmpccer &= (uint16_t)~TIM_CCER_CC3NE;
 80022b8:	89fb      	ldrh	r3, [r7, #14]
 80022ba:	f423 6380 	bic.w	r3, r3, #1024	; 0x400
 80022be:	81fb      	strh	r3, [r7, #14]
    
    /* Set the Output N State */
    tmpccer |= (uint16_t)(TIM_OCInitStruct->TIM_OutputNState << 8);
 80022c0:	683b      	ldr	r3, [r7, #0]
 80022c2:	889b      	ldrh	r3, [r3, #4]
 80022c4:	ea4f 2303 	mov.w	r3, r3, lsl #8
 80022c8:	b29a      	uxth	r2, r3
 80022ca:	89fb      	ldrh	r3, [r7, #14]
 80022cc:	4313      	orrs	r3, r2
 80022ce:	81fb      	strh	r3, [r7, #14]
    /* Reset the Output Compare and Output Compare N IDLE State */
    tmpcr2 &= (uint16_t)~TIM_CR2_OIS3;
 80022d0:	89bb      	ldrh	r3, [r7, #12]
 80022d2:	f423 5380 	bic.w	r3, r3, #4096	; 0x1000
 80022d6:	81bb      	strh	r3, [r7, #12]
    tmpcr2 &= (uint16_t)~TIM_CR2_OIS3N;
 80022d8:	89bb      	ldrh	r3, [r7, #12]
 80022da:	f423 5300 	bic.w	r3, r3, #8192	; 0x2000
 80022de:	81bb      	strh	r3, [r7, #12]
    /* Set the Output Idle state */
    tmpcr2 |= (uint16_t)(TIM_OCInitStruct->TIM_OCIdleState << 4);
 80022e0:	683b      	ldr	r3, [r7, #0]
 80022e2:	8a1b      	ldrh	r3, [r3, #16]
 80022e4:	ea4f 1303 	mov.w	r3, r3, lsl #4
 80022e8:	b29a      	uxth	r2, r3
 80022ea:	89bb      	ldrh	r3, [r7, #12]
 80022ec:	4313      	orrs	r3, r2
 80022ee:	81bb      	strh	r3, [r7, #12]
    /* Set the Output N Idle state */
    tmpcr2 |= (uint16_t)(TIM_OCInitStruct->TIM_OCNIdleState << 4);
 80022f0:	683b      	ldr	r3, [r7, #0]
 80022f2:	8a5b      	ldrh	r3, [r3, #18]
 80022f4:	ea4f 1303 	mov.w	r3, r3, lsl #4
 80022f8:	b29a      	uxth	r2, r3
 80022fa:	89bb      	ldrh	r3, [r7, #12]
 80022fc:	4313      	orrs	r3, r2
 80022fe:	81bb      	strh	r3, [r7, #12]
  }
  /* Write to TIMx CR2 */
  TIMx->CR2 = tmpcr2;
 8002300:	687b      	ldr	r3, [r7, #4]
 8002302:	89ba      	ldrh	r2, [r7, #12]
 8002304:	809a      	strh	r2, [r3, #4]
  
  /* Write to TIMx CCMR2 */
  TIMx->CCMR2 = tmpccmrx;
 8002306:	687b      	ldr	r3, [r7, #4]
 8002308:	897a      	ldrh	r2, [r7, #10]
 800230a:	839a      	strh	r2, [r3, #28]
  
  /* Set the Capture Compare Register value */
  TIMx->CCR3 = TIM_OCInitStruct->TIM_Pulse;
 800230c:	683b      	ldr	r3, [r7, #0]
 800230e:	689a      	ldr	r2, [r3, #8]
 8002310:	687b      	ldr	r3, [r7, #4]
 8002312:	63da      	str	r2, [r3, #60]	; 0x3c
  
  /* Write to TIMx CCER */
  TIMx->CCER = tmpccer;
 8002314:	687b      	ldr	r3, [r7, #4]
 8002316:	89fa      	ldrh	r2, [r7, #14]
 8002318:	841a      	strh	r2, [r3, #32]
}
 800231a:	f107 0714 	add.w	r7, r7, #20
 800231e:	46bd      	mov	sp, r7
 8002320:	bc80      	pop	{r7}
 8002322:	4770      	bx	lr

08002324 <TIM_OC4Init>:
  * @param  TIM_OCInitStruct: pointer to a TIM_OCInitTypeDef structure that contains
  *         the configuration information for the specified TIM peripheral.
  * @retval None
  */
void TIM_OC4Init(TIM_TypeDef* TIMx, TIM_OCInitTypeDef* TIM_OCInitStruct)
{
 8002324:	b480      	push	{r7}
 8002326:	b085      	sub	sp, #20
 8002328:	af00      	add	r7, sp, #0
 800232a:	6078      	str	r0, [r7, #4]
 800232c:	6039      	str	r1, [r7, #0]
  uint16_t tmpccmrx = 0, tmpccer = 0, tmpcr2 = 0;
 800232e:	f04f 0300 	mov.w	r3, #0
 8002332:	81bb      	strh	r3, [r7, #12]
 8002334:	f04f 0300 	mov.w	r3, #0
 8002338:	817b      	strh	r3, [r7, #10]
 800233a:	f04f 0300 	mov.w	r3, #0
 800233e:	81fb      	strh	r3, [r7, #14]
  assert_param(IS_TIM_OC_MODE(TIM_OCInitStruct->TIM_OCMode));
  assert_param(IS_TIM_OUTPUT_STATE(TIM_OCInitStruct->TIM_OutputState));
  assert_param(IS_TIM_OC_POLARITY(TIM_OCInitStruct->TIM_OCPolarity));   

  /* Disable the Channel 4: Reset the CC4E Bit */
  TIMx->CCER &= (uint16_t)~TIM_CCER_CC4E;
 8002340:	687b      	ldr	r3, [r7, #4]
 8002342:	8c1b      	ldrh	r3, [r3, #32]
 8002344:	b29b      	uxth	r3, r3
 8002346:	f423 5380 	bic.w	r3, r3, #4096	; 0x1000
 800234a:	b29a      	uxth	r2, r3
 800234c:	687b      	ldr	r3, [r7, #4]
 800234e:	841a      	strh	r2, [r3, #32]
  
  /* Get the TIMx CCER register value */
  tmpccer = TIMx->CCER;
 8002350:	687b      	ldr	r3, [r7, #4]
 8002352:	8c1b      	ldrh	r3, [r3, #32]
 8002354:	817b      	strh	r3, [r7, #10]
  /* Get the TIMx CR2 register value */
  tmpcr2 =  TIMx->CR2;
 8002356:	687b      	ldr	r3, [r7, #4]
 8002358:	889b      	ldrh	r3, [r3, #4]
 800235a:	81fb      	strh	r3, [r7, #14]
  
  /* Get the TIMx CCMR2 register value */
  tmpccmrx = TIMx->CCMR2;
 800235c:	687b      	ldr	r3, [r7, #4]
 800235e:	8b9b      	ldrh	r3, [r3, #28]
 8002360:	81bb      	strh	r3, [r7, #12]
    
  /* Reset the Output Compare mode and Capture/Compare selection Bits */
  tmpccmrx &= (uint16_t)~TIM_CCMR2_OC4M;
 8002362:	89bb      	ldrh	r3, [r7, #12]
 8002364:	f423 43e0 	bic.w	r3, r3, #28672	; 0x7000
 8002368:	81bb      	strh	r3, [r7, #12]
  tmpccmrx &= (uint16_t)~TIM_CCMR2_CC4S;
 800236a:	89bb      	ldrh	r3, [r7, #12]
 800236c:	f423 7340 	bic.w	r3, r3, #768	; 0x300
 8002370:	81bb      	strh	r3, [r7, #12]
  
  /* Select the Output Compare Mode */
  tmpccmrx |= (uint16_t)(TIM_OCInitStruct->TIM_OCMode << 8);
 8002372:	683b      	ldr	r3, [r7, #0]
 8002374:	881b      	ldrh	r3, [r3, #0]
 8002376:	ea4f 2303 	mov.w	r3, r3, lsl #8
 800237a:	b29a      	uxth	r2, r3
 800237c:	89bb      	ldrh	r3, [r7, #12]
 800237e:	4313      	orrs	r3, r2
 8002380:	81bb      	strh	r3, [r7, #12]
  
  /* Reset the Output Polarity level */
  tmpccer &= (uint16_t)~TIM_CCER_CC4P;
 8002382:	897b      	ldrh	r3, [r7, #10]
 8002384:	f423 5300 	bic.w	r3, r3, #8192	; 0x2000
 8002388:	817b      	strh	r3, [r7, #10]
  /* Set the Output Compare Polarity */
  tmpccer |= (uint16_t)(TIM_OCInitStruct->TIM_OCPolarity << 12);
 800238a:	683b      	ldr	r3, [r7, #0]
 800238c:	899b      	ldrh	r3, [r3, #12]
 800238e:	ea4f 3303 	mov.w	r3, r3, lsl #12
 8002392:	b29a      	uxth	r2, r3
 8002394:	897b      	ldrh	r3, [r7, #10]
 8002396:	4313      	orrs	r3, r2
 8002398:	817b      	strh	r3, [r7, #10]
  
  /* Set the Output State */
  tmpccer |= (uint16_t)(TIM_OCInitStruct->TIM_OutputState << 12);
 800239a:	683b      	ldr	r3, [r7, #0]
 800239c:	885b      	ldrh	r3, [r3, #2]
 800239e:	ea4f 3303 	mov.w	r3, r3, lsl #12
 80023a2:	b29a      	uxth	r2, r3
 80023a4:	897b      	ldrh	r3, [r7, #10]
 80023a6:	4313      	orrs	r3, r2
 80023a8:	817b      	strh	r3, [r7, #10]
  
  if((TIMx == TIM1) || (TIMx == TIM8))
 80023aa:	687a      	ldr	r2, [r7, #4]
 80023ac:	f04f 0300 	mov.w	r3, #0
 80023b0:	f2c4 0301 	movt	r3, #16385	; 0x4001
 80023b4:	429a      	cmp	r2, r3
 80023b6:	d006      	beq.n	80023c6 <TIM_OC4Init+0xa2>
 80023b8:	687a      	ldr	r2, [r7, #4]
 80023ba:	f44f 6380 	mov.w	r3, #1024	; 0x400
 80023be:	f2c4 0301 	movt	r3, #16385	; 0x4001
 80023c2:	429a      	cmp	r2, r3
 80023c4:	d10b      	bne.n	80023de <TIM_OC4Init+0xba>
  {
    assert_param(IS_TIM_OCIDLE_STATE(TIM_OCInitStruct->TIM_OCIdleState));
    /* Reset the Output Compare IDLE State */
    tmpcr2 &=(uint16_t) ~TIM_CR2_OIS4;
 80023c6:	89fb      	ldrh	r3, [r7, #14]
 80023c8:	f423 4380 	bic.w	r3, r3, #16384	; 0x4000
 80023cc:	81fb      	strh	r3, [r7, #14]
    /* Set the Output Idle state */
    tmpcr2 |= (uint16_t)(TIM_OCInitStruct->TIM_OCIdleState << 6);
 80023ce:	683b      	ldr	r3, [r7, #0]
 80023d0:	8a1b      	ldrh	r3, [r3, #16]
 80023d2:	ea4f 1383 	mov.w	r3, r3, lsl #6
 80023d6:	b29a      	uxth	r2, r3
 80023d8:	89fb      	ldrh	r3, [r7, #14]
 80023da:	4313      	orrs	r3, r2
 80023dc:	81fb      	strh	r3, [r7, #14]
  }
  /* Write to TIMx CR2 */
  TIMx->CR2 = tmpcr2;
 80023de:	687b      	ldr	r3, [r7, #4]
 80023e0:	89fa      	ldrh	r2, [r7, #14]
 80023e2:	809a      	strh	r2, [r3, #4]
  
  /* Write to TIMx CCMR2 */  
  TIMx->CCMR2 = tmpccmrx;
 80023e4:	687b      	ldr	r3, [r7, #4]
 80023e6:	89ba      	ldrh	r2, [r7, #12]
 80023e8:	839a      	strh	r2, [r3, #28]
    
  /* Set the Capture Compare Register value */
  TIMx->CCR4 = TIM_OCInitStruct->TIM_Pulse;
 80023ea:	683b      	ldr	r3, [r7, #0]
 80023ec:	689a      	ldr	r2, [r3, #8]
 80023ee:	687b      	ldr	r3, [r7, #4]
 80023f0:	641a      	str	r2, [r3, #64]	; 0x40
  
  /* Write to TIMx CCER */
  TIMx->CCER = tmpccer;
 80023f2:	687b      	ldr	r3, [r7, #4]
 80023f4:	897a      	ldrh	r2, [r7, #10]
 80023f6:	841a      	strh	r2, [r3, #32]
}
 80023f8:	f107 0714 	add.w	r7, r7, #20
 80023fc:	46bd      	mov	sp, r7
 80023fe:	bc80      	pop	{r7}
 8002400:	4770      	bx	lr
 8002402:	bf00      	nop

08002404 <TIM_OCStructInit>:
  * @param  TIM_OCInitStruct: pointer to a TIM_OCInitTypeDef structure which will
  *         be initialized.
  * @retval None
  */
void TIM_OCStructInit(TIM_OCInitTypeDef* TIM_OCInitStruct)
{
 8002404:	b480      	push	{r7}
 8002406:	b083      	sub	sp, #12
 8002408:	af00      	add	r7, sp, #0
 800240a:	6078      	str	r0, [r7, #4]
  /* Set the default configuration */
  TIM_OCInitStruct->TIM_OCMode = TIM_OCMode_Timing;
 800240c:	687b      	ldr	r3, [r7, #4]
 800240e:	f04f 0200 	mov.w	r2, #0
 8002412:	801a      	strh	r2, [r3, #0]
  TIM_OCInitStruct->TIM_OutputState = TIM_OutputState_Disable;
 8002414:	687b      	ldr	r3, [r7, #4]
 8002416:	f04f 0200 	mov.w	r2, #0
 800241a:	805a      	strh	r2, [r3, #2]
  TIM_OCInitStruct->TIM_OutputNState = TIM_OutputNState_Disable;
 800241c:	687b      	ldr	r3, [r7, #4]
 800241e:	f04f 0200 	mov.w	r2, #0
 8002422:	809a      	strh	r2, [r3, #4]
  TIM_OCInitStruct->TIM_Pulse = 0x00000000;
 8002424:	687b      	ldr	r3, [r7, #4]
 8002426:	f04f 0200 	mov.w	r2, #0
 800242a:	609a      	str	r2, [r3, #8]
  TIM_OCInitStruct->TIM_OCPolarity = TIM_OCPolarity_High;
 800242c:	687b      	ldr	r3, [r7, #4]
 800242e:	f04f 0200 	mov.w	r2, #0
 8002432:	819a      	strh	r2, [r3, #12]
  TIM_OCInitStruct->TIM_OCNPolarity = TIM_OCPolarity_High;
 8002434:	687b      	ldr	r3, [r7, #4]
 8002436:	f04f 0200 	mov.w	r2, #0
 800243a:	81da      	strh	r2, [r3, #14]
  TIM_OCInitStruct->TIM_OCIdleState = TIM_OCIdleState_Reset;
 800243c:	687b      	ldr	r3, [r7, #4]
 800243e:	f04f 0200 	mov.w	r2, #0
 8002442:	821a      	strh	r2, [r3, #16]
  TIM_OCInitStruct->TIM_OCNIdleState = TIM_OCNIdleState_Reset;
 8002444:	687b      	ldr	r3, [r7, #4]
 8002446:	f04f 0200 	mov.w	r2, #0
 800244a:	825a      	strh	r2, [r3, #18]
}
 800244c:	f107 070c 	add.w	r7, r7, #12
 8002450:	46bd      	mov	sp, r7
 8002452:	bc80      	pop	{r7}
 8002454:	4770      	bx	lr
 8002456:	bf00      	nop

08002458 <TIM_SelectOCxM>:
  *            @arg TIM_ForcedAction_Active
  *            @arg TIM_ForcedAction_InActive
  * @retval None
  */
void TIM_SelectOCxM(TIM_TypeDef* TIMx, uint16_t TIM_Channel, uint16_t TIM_OCMode)
{
 8002458:	b480      	push	{r7}
 800245a:	b085      	sub	sp, #20
 800245c:	af00      	add	r7, sp, #0
 800245e:	6078      	str	r0, [r7, #4]
 8002460:	4613      	mov	r3, r2
 8002462:	460a      	mov	r2, r1
 8002464:	807a      	strh	r2, [r7, #2]
 8002466:	803b      	strh	r3, [r7, #0]
  uint32_t tmp = 0;
 8002468:	f04f 0300 	mov.w	r3, #0
 800246c:	60fb      	str	r3, [r7, #12]
  uint16_t tmp1 = 0;
 800246e:	f04f 0300 	mov.w	r3, #0
 8002472:	817b      	strh	r3, [r7, #10]
  /* Check the parameters */
  assert_param(IS_TIM_LIST1_PERIPH(TIMx));
  assert_param(IS_TIM_CHANNEL(TIM_Channel));
  assert_param(IS_TIM_OCM(TIM_OCMode));

  tmp = (uint32_t) TIMx;
 8002474:	687b      	ldr	r3, [r7, #4]
 8002476:	60fb      	str	r3, [r7, #12]
  tmp += CCMR_OFFSET;
 8002478:	68fb      	ldr	r3, [r7, #12]
 800247a:	f103 0318 	add.w	r3, r3, #24
 800247e:	60fb      	str	r3, [r7, #12]

  tmp1 = CCER_CCE_SET << (uint16_t)TIM_Channel;
 8002480:	887b      	ldrh	r3, [r7, #2]
 8002482:	f04f 0201 	mov.w	r2, #1
 8002486:	fa02 f303 	lsl.w	r3, r2, r3
 800248a:	817b      	strh	r3, [r7, #10]

  /* Disable the Channel: Reset the CCxE Bit */
  TIMx->CCER &= (uint16_t) ~tmp1;
 800248c:	687b      	ldr	r3, [r7, #4]
 800248e:	8c1b      	ldrh	r3, [r3, #32]
 8002490:	b29a      	uxth	r2, r3
 8002492:	897b      	ldrh	r3, [r7, #10]
 8002494:	ea6f 0303 	mvn.w	r3, r3
 8002498:	b29b      	uxth	r3, r3
 800249a:	4013      	ands	r3, r2
 800249c:	b29a      	uxth	r2, r3
 800249e:	687b      	ldr	r3, [r7, #4]
 80024a0:	841a      	strh	r2, [r3, #32]

  if((TIM_Channel == TIM_Channel_1) ||(TIM_Channel == TIM_Channel_3))
 80024a2:	887b      	ldrh	r3, [r7, #2]
 80024a4:	2b00      	cmp	r3, #0
 80024a6:	d002      	beq.n	80024ae <TIM_SelectOCxM+0x56>
 80024a8:	887b      	ldrh	r3, [r7, #2]
 80024aa:	2b08      	cmp	r3, #8
 80024ac:	d114      	bne.n	80024d8 <TIM_SelectOCxM+0x80>
  {
    tmp += (TIM_Channel>>1);
 80024ae:	887b      	ldrh	r3, [r7, #2]
 80024b0:	ea4f 0353 	mov.w	r3, r3, lsr #1
 80024b4:	b29b      	uxth	r3, r3
 80024b6:	68fa      	ldr	r2, [r7, #12]
 80024b8:	18d3      	adds	r3, r2, r3
 80024ba:	60fb      	str	r3, [r7, #12]

    /* Reset the OCxM bits in the CCMRx register */
    *(__IO uint32_t *) tmp &= CCMR_OC13M_MASK;
 80024bc:	68fa      	ldr	r2, [r7, #12]
 80024be:	68fb      	ldr	r3, [r7, #12]
 80024c0:	6819      	ldr	r1, [r3, #0]
 80024c2:	f64f 738f 	movw	r3, #65423	; 0xff8f
 80024c6:	400b      	ands	r3, r1
 80024c8:	6013      	str	r3, [r2, #0]
   
    /* Configure the OCxM bits in the CCMRx register */
    *(__IO uint32_t *) tmp |= TIM_OCMode;
 80024ca:	68fb      	ldr	r3, [r7, #12]
 80024cc:	68fa      	ldr	r2, [r7, #12]
 80024ce:	6811      	ldr	r1, [r2, #0]
 80024d0:	883a      	ldrh	r2, [r7, #0]
 80024d2:	430a      	orrs	r2, r1
 80024d4:	601a      	str	r2, [r3, #0]
 80024d6:	e019      	b.n	800250c <TIM_SelectOCxM+0xb4>
  }
  else
  {
    tmp += (uint16_t)(TIM_Channel - (uint16_t)4)>> (uint16_t)1;
 80024d8:	887b      	ldrh	r3, [r7, #2]
 80024da:	f1a3 0304 	sub.w	r3, r3, #4
 80024de:	b29b      	uxth	r3, r3
 80024e0:	ea4f 0353 	mov.w	r3, r3, lsr #1
 80024e4:	b29b      	uxth	r3, r3
 80024e6:	68fa      	ldr	r2, [r7, #12]
 80024e8:	18d3      	adds	r3, r2, r3
 80024ea:	60fb      	str	r3, [r7, #12]

    /* Reset the OCxM bits in the CCMRx register */
    *(__IO uint32_t *) tmp &= CCMR_OC24M_MASK;
 80024ec:	68fa      	ldr	r2, [r7, #12]
 80024ee:	68fb      	ldr	r3, [r7, #12]
 80024f0:	6819      	ldr	r1, [r3, #0]
 80024f2:	f648 73ff 	movw	r3, #36863	; 0x8fff
 80024f6:	400b      	ands	r3, r1
 80024f8:	6013      	str	r3, [r2, #0]
    
    /* Configure the OCxM bits in the CCMRx register */
    *(__IO uint32_t *) tmp |= (uint16_t)(TIM_OCMode << 8);
 80024fa:	68fb      	ldr	r3, [r7, #12]
 80024fc:	68fa      	ldr	r2, [r7, #12]
 80024fe:	6811      	ldr	r1, [r2, #0]
 8002500:	883a      	ldrh	r2, [r7, #0]
 8002502:	ea4f 2202 	mov.w	r2, r2, lsl #8
 8002506:	b292      	uxth	r2, r2
 8002508:	430a      	orrs	r2, r1
 800250a:	601a      	str	r2, [r3, #0]
  }
}
 800250c:	f107 0714 	add.w	r7, r7, #20
 8002510:	46bd      	mov	sp, r7
 8002512:	bc80      	pop	{r7}
 8002514:	4770      	bx	lr
 8002516:	bf00      	nop

08002518 <TIM_SetCompare1>:
  * @param  TIMx: where x can be 1 to 14 except 6 and 7, to select the TIM peripheral.
  * @param  Compare1: specifies the Capture Compare1 register new value.
  * @retval None
  */
void TIM_SetCompare1(TIM_TypeDef* TIMx, uint32_t Compare1)
{
 8002518:	b480      	push	{r7}
 800251a:	b083      	sub	sp, #12
 800251c:	af00      	add	r7, sp, #0
 800251e:	6078      	str	r0, [r7, #4]
 8002520:	6039      	str	r1, [r7, #0]
  /* Check the parameters */
  assert_param(IS_TIM_LIST1_PERIPH(TIMx));

  /* Set the Capture Compare1 Register value */
  TIMx->CCR1 = Compare1;
 8002522:	687b      	ldr	r3, [r7, #4]
 8002524:	683a      	ldr	r2, [r7, #0]
 8002526:	635a      	str	r2, [r3, #52]	; 0x34
}
 8002528:	f107 070c 	add.w	r7, r7, #12
 800252c:	46bd      	mov	sp, r7
 800252e:	bc80      	pop	{r7}
 8002530:	4770      	bx	lr
 8002532:	bf00      	nop

08002534 <TIM_SetCompare2>:
  *         peripheral.
  * @param  Compare2: specifies the Capture Compare2 register new value.
  * @retval None
  */
void TIM_SetCompare2(TIM_TypeDef* TIMx, uint32_t Compare2)
{
 8002534:	b480      	push	{r7}
 8002536:	b083      	sub	sp, #12
 8002538:	af00      	add	r7, sp, #0
 800253a:	6078      	str	r0, [r7, #4]
 800253c:	6039      	str	r1, [r7, #0]
  /* Check the parameters */
  assert_param(IS_TIM_LIST2_PERIPH(TIMx));

  /* Set the Capture Compare2 Register value */
  TIMx->CCR2 = Compare2;
 800253e:	687b      	ldr	r3, [r7, #4]
 8002540:	683a      	ldr	r2, [r7, #0]
 8002542:	639a      	str	r2, [r3, #56]	; 0x38
}
 8002544:	f107 070c 	add.w	r7, r7, #12
 8002548:	46bd      	mov	sp, r7
 800254a:	bc80      	pop	{r7}
 800254c:	4770      	bx	lr
 800254e:	bf00      	nop

08002550 <TIM_SetCompare3>:
  * @param  TIMx: where x can be 1, 2, 3, 4, 5 or 8 to select the TIM peripheral.
  * @param  Compare3: specifies the Capture Compare3 register new value.
  * @retval None
  */
void TIM_SetCompare3(TIM_TypeDef* TIMx, uint32_t Compare3)
{
 8002550:	b480      	push	{r7}
 8002552:	b083      	sub	sp, #12
 8002554:	af00      	add	r7, sp, #0
 8002556:	6078      	str	r0, [r7, #4]
 8002558:	6039      	str	r1, [r7, #0]
  /* Check the parameters */
  assert_param(IS_TIM_LIST3_PERIPH(TIMx));

  /* Set the Capture Compare3 Register value */
  TIMx->CCR3 = Compare3;
 800255a:	687b      	ldr	r3, [r7, #4]
 800255c:	683a      	ldr	r2, [r7, #0]
 800255e:	63da      	str	r2, [r3, #60]	; 0x3c
}
 8002560:	f107 070c 	add.w	r7, r7, #12
 8002564:	46bd      	mov	sp, r7
 8002566:	bc80      	pop	{r7}
 8002568:	4770      	bx	lr
 800256a:	bf00      	nop

0800256c <TIM_SetCompare4>:
  * @param  TIMx: where x can be 1, 2, 3, 4, 5 or 8 to select the TIM peripheral.
  * @param  Compare4: specifies the Capture Compare4 register new value.
  * @retval None
  */
void TIM_SetCompare4(TIM_TypeDef* TIMx, uint32_t Compare4)
{
 800256c:	b480      	push	{r7}
 800256e:	b083      	sub	sp, #12
 8002570:	af00      	add	r7, sp, #0
 8002572:	6078      	str	r0, [r7, #4]
 8002574:	6039      	str	r1, [r7, #0]
  /* Check the parameters */
  assert_param(IS_TIM_LIST3_PERIPH(TIMx));

  /* Set the Capture Compare4 Register value */
  TIMx->CCR4 = Compare4;
 8002576:	687b      	ldr	r3, [r7, #4]
 8002578:	683a      	ldr	r2, [r7, #0]
 800257a:	641a      	str	r2, [r3, #64]	; 0x40
}
 800257c:	f107 070c 	add.w	r7, r7, #12
 8002580:	46bd      	mov	sp, r7
 8002582:	bc80      	pop	{r7}
 8002584:	4770      	bx	lr
 8002586:	bf00      	nop

08002588 <TIM_ForcedOC1Config>:
  *            @arg TIM_ForcedAction_Active: Force active level on OC1REF
  *            @arg TIM_ForcedAction_InActive: Force inactive level on OC1REF.
  * @retval None
  */
void TIM_ForcedOC1Config(TIM_TypeDef* TIMx, uint16_t TIM_ForcedAction)
{
 8002588:	b480      	push	{r7}
 800258a:	b085      	sub	sp, #20
 800258c:	af00      	add	r7, sp, #0
 800258e:	6078      	str	r0, [r7, #4]
 8002590:	460b      	mov	r3, r1
 8002592:	807b      	strh	r3, [r7, #2]
  uint16_t tmpccmr1 = 0;
 8002594:	f04f 0300 	mov.w	r3, #0
 8002598:	81fb      	strh	r3, [r7, #14]

  /* Check the parameters */
  assert_param(IS_TIM_LIST1_PERIPH(TIMx));
  assert_param(IS_TIM_FORCED_ACTION(TIM_ForcedAction));
  tmpccmr1 = TIMx->CCMR1;
 800259a:	687b      	ldr	r3, [r7, #4]
 800259c:	8b1b      	ldrh	r3, [r3, #24]
 800259e:	81fb      	strh	r3, [r7, #14]

  /* Reset the OC1M Bits */
  tmpccmr1 &= (uint16_t)~TIM_CCMR1_OC1M;
 80025a0:	89fb      	ldrh	r3, [r7, #14]
 80025a2:	f023 0370 	bic.w	r3, r3, #112	; 0x70
 80025a6:	81fb      	strh	r3, [r7, #14]

  /* Configure The Forced output Mode */
  tmpccmr1 |= TIM_ForcedAction;
 80025a8:	89fa      	ldrh	r2, [r7, #14]
 80025aa:	887b      	ldrh	r3, [r7, #2]
 80025ac:	4313      	orrs	r3, r2
 80025ae:	81fb      	strh	r3, [r7, #14]

  /* Write to TIMx CCMR1 register */
  TIMx->CCMR1 = tmpccmr1;
 80025b0:	687b      	ldr	r3, [r7, #4]
 80025b2:	89fa      	ldrh	r2, [r7, #14]
 80025b4:	831a      	strh	r2, [r3, #24]
}
 80025b6:	f107 0714 	add.w	r7, r7, #20
 80025ba:	46bd      	mov	sp, r7
 80025bc:	bc80      	pop	{r7}
 80025be:	4770      	bx	lr

080025c0 <TIM_ForcedOC2Config>:
  *            @arg TIM_ForcedAction_Active: Force active level on OC2REF
  *            @arg TIM_ForcedAction_InActive: Force inactive level on OC2REF.
  * @retval None
  */
void TIM_ForcedOC2Config(TIM_TypeDef* TIMx, uint16_t TIM_ForcedAction)
{
 80025c0:	b480      	push	{r7}
 80025c2:	b085      	sub	sp, #20
 80025c4:	af00      	add	r7, sp, #0
 80025c6:	6078      	str	r0, [r7, #4]
 80025c8:	460b      	mov	r3, r1
 80025ca:	807b      	strh	r3, [r7, #2]
  uint16_t tmpccmr1 = 0;
 80025cc:	f04f 0300 	mov.w	r3, #0
 80025d0:	81fb      	strh	r3, [r7, #14]

  /* Check the parameters */
  assert_param(IS_TIM_LIST2_PERIPH(TIMx));
  assert_param(IS_TIM_FORCED_ACTION(TIM_ForcedAction));
  tmpccmr1 = TIMx->CCMR1;
 80025d2:	687b      	ldr	r3, [r7, #4]
 80025d4:	8b1b      	ldrh	r3, [r3, #24]
 80025d6:	81fb      	strh	r3, [r7, #14]

  /* Reset the OC2M Bits */
  tmpccmr1 &= (uint16_t)~TIM_CCMR1_OC2M;
 80025d8:	89fb      	ldrh	r3, [r7, #14]
 80025da:	f423 43e0 	bic.w	r3, r3, #28672	; 0x7000
 80025de:	81fb      	strh	r3, [r7, #14]

  /* Configure The Forced output Mode */
  tmpccmr1 |= (uint16_t)(TIM_ForcedAction << 8);
 80025e0:	887b      	ldrh	r3, [r7, #2]
 80025e2:	ea4f 2303 	mov.w	r3, r3, lsl #8
 80025e6:	b29a      	uxth	r2, r3
 80025e8:	89fb      	ldrh	r3, [r7, #14]
 80025ea:	4313      	orrs	r3, r2
 80025ec:	81fb      	strh	r3, [r7, #14]

  /* Write to TIMx CCMR1 register */
  TIMx->CCMR1 = tmpccmr1;
 80025ee:	687b      	ldr	r3, [r7, #4]
 80025f0:	89fa      	ldrh	r2, [r7, #14]
 80025f2:	831a      	strh	r2, [r3, #24]
}
 80025f4:	f107 0714 	add.w	r7, r7, #20
 80025f8:	46bd      	mov	sp, r7
 80025fa:	bc80      	pop	{r7}
 80025fc:	4770      	bx	lr
 80025fe:	bf00      	nop

08002600 <TIM_ForcedOC3Config>:
  *            @arg TIM_ForcedAction_Active: Force active level on OC3REF
  *            @arg TIM_ForcedAction_InActive: Force inactive level on OC3REF.
  * @retval None
  */
void TIM_ForcedOC3Config(TIM_TypeDef* TIMx, uint16_t TIM_ForcedAction)
{
 8002600:	b480      	push	{r7}
 8002602:	b085      	sub	sp, #20
 8002604:	af00      	add	r7, sp, #0
 8002606:	6078      	str	r0, [r7, #4]
 8002608:	460b      	mov	r3, r1
 800260a:	807b      	strh	r3, [r7, #2]
  uint16_t tmpccmr2 = 0;
 800260c:	f04f 0300 	mov.w	r3, #0
 8002610:	81fb      	strh	r3, [r7, #14]

  /* Check the parameters */
  assert_param(IS_TIM_LIST3_PERIPH(TIMx));
  assert_param(IS_TIM_FORCED_ACTION(TIM_ForcedAction));

  tmpccmr2 = TIMx->CCMR2;
 8002612:	687b      	ldr	r3, [r7, #4]
 8002614:	8b9b      	ldrh	r3, [r3, #28]
 8002616:	81fb      	strh	r3, [r7, #14]

  /* Reset the OC1M Bits */
  tmpccmr2 &= (uint16_t)~TIM_CCMR2_OC3M;
 8002618:	89fb      	ldrh	r3, [r7, #14]
 800261a:	f023 0370 	bic.w	r3, r3, #112	; 0x70
 800261e:	81fb      	strh	r3, [r7, #14]

  /* Configure The Forced output Mode */
  tmpccmr2 |= TIM_ForcedAction;
 8002620:	89fa      	ldrh	r2, [r7, #14]
 8002622:	887b      	ldrh	r3, [r7, #2]
 8002624:	4313      	orrs	r3, r2
 8002626:	81fb      	strh	r3, [r7, #14]

  /* Write to TIMx CCMR2 register */
  TIMx->CCMR2 = tmpccmr2;
 8002628:	687b      	ldr	r3, [r7, #4]
 800262a:	89fa      	ldrh	r2, [r7, #14]
 800262c:	839a      	strh	r2, [r3, #28]
}
 800262e:	f107 0714 	add.w	r7, r7, #20
 8002632:	46bd      	mov	sp, r7
 8002634:	bc80      	pop	{r7}
 8002636:	4770      	bx	lr

08002638 <TIM_ForcedOC4Config>:
  *            @arg TIM_ForcedAction_Active: Force active level on OC4REF
  *            @arg TIM_ForcedAction_InActive: Force inactive level on OC4REF.
  * @retval None
  */
void TIM_ForcedOC4Config(TIM_TypeDef* TIMx, uint16_t TIM_ForcedAction)
{
 8002638:	b480      	push	{r7}
 800263a:	b085      	sub	sp, #20
 800263c:	af00      	add	r7, sp, #0
 800263e:	6078      	str	r0, [r7, #4]
 8002640:	460b      	mov	r3, r1
 8002642:	807b      	strh	r3, [r7, #2]
  uint16_t tmpccmr2 = 0;
 8002644:	f04f 0300 	mov.w	r3, #0
 8002648:	81fb      	strh	r3, [r7, #14]

  /* Check the parameters */
  assert_param(IS_TIM_LIST3_PERIPH(TIMx));
  assert_param(IS_TIM_FORCED_ACTION(TIM_ForcedAction));
  tmpccmr2 = TIMx->CCMR2;
 800264a:	687b      	ldr	r3, [r7, #4]
 800264c:	8b9b      	ldrh	r3, [r3, #28]
 800264e:	81fb      	strh	r3, [r7, #14]

  /* Reset the OC2M Bits */
  tmpccmr2 &= (uint16_t)~TIM_CCMR2_OC4M;
 8002650:	89fb      	ldrh	r3, [r7, #14]
 8002652:	f423 43e0 	bic.w	r3, r3, #28672	; 0x7000
 8002656:	81fb      	strh	r3, [r7, #14]

  /* Configure The Forced output Mode */
  tmpccmr2 |= (uint16_t)(TIM_ForcedAction << 8);
 8002658:	887b      	ldrh	r3, [r7, #2]
 800265a:	ea4f 2303 	mov.w	r3, r3, lsl #8
 800265e:	b29a      	uxth	r2, r3
 8002660:	89fb      	ldrh	r3, [r7, #14]
 8002662:	4313      	orrs	r3, r2
 8002664:	81fb      	strh	r3, [r7, #14]

  /* Write to TIMx CCMR2 register */
  TIMx->CCMR2 = tmpccmr2;
 8002666:	687b      	ldr	r3, [r7, #4]
 8002668:	89fa      	ldrh	r2, [r7, #14]
 800266a:	839a      	strh	r2, [r3, #28]
}
 800266c:	f107 0714 	add.w	r7, r7, #20
 8002670:	46bd      	mov	sp, r7
 8002672:	bc80      	pop	{r7}
 8002674:	4770      	bx	lr
 8002676:	bf00      	nop

08002678 <TIM_OC1PreloadConfig>:
  *            @arg TIM_OCPreload_Enable
  *            @arg TIM_OCPreload_Disable
  * @retval None
  */
void TIM_OC1PreloadConfig(TIM_TypeDef* TIMx, uint16_t TIM_OCPreload)
{
 8002678:	b480      	push	{r7}
 800267a:	b085      	sub	sp, #20
 800267c:	af00      	add	r7, sp, #0
 800267e:	6078      	str	r0, [r7, #4]
 8002680:	460b      	mov	r3, r1
 8002682:	807b      	strh	r3, [r7, #2]
  uint16_t tmpccmr1 = 0;
 8002684:	f04f 0300 	mov.w	r3, #0
 8002688:	81fb      	strh	r3, [r7, #14]

  /* Check the parameters */
  assert_param(IS_TIM_LIST1_PERIPH(TIMx));
  assert_param(IS_TIM_OCPRELOAD_STATE(TIM_OCPreload));

  tmpccmr1 = TIMx->CCMR1;
 800268a:	687b      	ldr	r3, [r7, #4]
 800268c:	8b1b      	ldrh	r3, [r3, #24]
 800268e:	81fb      	strh	r3, [r7, #14]

  /* Reset the OC1PE Bit */
  tmpccmr1 &= (uint16_t)(~TIM_CCMR1_OC1PE);
 8002690:	89fb      	ldrh	r3, [r7, #14]
 8002692:	f023 0308 	bic.w	r3, r3, #8
 8002696:	81fb      	strh	r3, [r7, #14]

  /* Enable or Disable the Output Compare Preload feature */
  tmpccmr1 |= TIM_OCPreload;
 8002698:	89fa      	ldrh	r2, [r7, #14]
 800269a:	887b      	ldrh	r3, [r7, #2]
 800269c:	4313      	orrs	r3, r2
 800269e:	81fb      	strh	r3, [r7, #14]

  /* Write to TIMx CCMR1 register */
  TIMx->CCMR1 = tmpccmr1;
 80026a0:	687b      	ldr	r3, [r7, #4]
 80026a2:	89fa      	ldrh	r2, [r7, #14]
 80026a4:	831a      	strh	r2, [r3, #24]
}
 80026a6:	f107 0714 	add.w	r7, r7, #20
 80026aa:	46bd      	mov	sp, r7
 80026ac:	bc80      	pop	{r7}
 80026ae:	4770      	bx	lr

080026b0 <TIM_OC2PreloadConfig>:
  *            @arg TIM_OCPreload_Enable
  *            @arg TIM_OCPreload_Disable
  * @retval None
  */
void TIM_OC2PreloadConfig(TIM_TypeDef* TIMx, uint16_t TIM_OCPreload)
{
 80026b0:	b480      	push	{r7}
 80026b2:	b085      	sub	sp, #20
 80026b4:	af00      	add	r7, sp, #0
 80026b6:	6078      	str	r0, [r7, #4]
 80026b8:	460b      	mov	r3, r1
 80026ba:	807b      	strh	r3, [r7, #2]
  uint16_t tmpccmr1 = 0;
 80026bc:	f04f 0300 	mov.w	r3, #0
 80026c0:	81fb      	strh	r3, [r7, #14]

  /* Check the parameters */
  assert_param(IS_TIM_LIST2_PERIPH(TIMx));
  assert_param(IS_TIM_OCPRELOAD_STATE(TIM_OCPreload));

  tmpccmr1 = TIMx->CCMR1;
 80026c2:	687b      	ldr	r3, [r7, #4]
 80026c4:	8b1b      	ldrh	r3, [r3, #24]
 80026c6:	81fb      	strh	r3, [r7, #14]

  /* Reset the OC2PE Bit */
  tmpccmr1 &= (uint16_t)(~TIM_CCMR1_OC2PE);
 80026c8:	89fb      	ldrh	r3, [r7, #14]
 80026ca:	f423 6300 	bic.w	r3, r3, #2048	; 0x800
 80026ce:	81fb      	strh	r3, [r7, #14]

  /* Enable or Disable the Output Compare Preload feature */
  tmpccmr1 |= (uint16_t)(TIM_OCPreload << 8);
 80026d0:	887b      	ldrh	r3, [r7, #2]
 80026d2:	ea4f 2303 	mov.w	r3, r3, lsl #8
 80026d6:	b29a      	uxth	r2, r3
 80026d8:	89fb      	ldrh	r3, [r7, #14]
 80026da:	4313      	orrs	r3, r2
 80026dc:	81fb      	strh	r3, [r7, #14]

  /* Write to TIMx CCMR1 register */
  TIMx->CCMR1 = tmpccmr1;
 80026de:	687b      	ldr	r3, [r7, #4]
 80026e0:	89fa      	ldrh	r2, [r7, #14]
 80026e2:	831a      	strh	r2, [r3, #24]
}
 80026e4:	f107 0714 	add.w	r7, r7, #20
 80026e8:	46bd      	mov	sp, r7
 80026ea:	bc80      	pop	{r7}
 80026ec:	4770      	bx	lr
 80026ee:	bf00      	nop

080026f0 <TIM_OC3PreloadConfig>:
  *            @arg TIM_OCPreload_Enable
  *            @arg TIM_OCPreload_Disable
  * @retval None
  */
void TIM_OC3PreloadConfig(TIM_TypeDef* TIMx, uint16_t TIM_OCPreload)
{
 80026f0:	b480      	push	{r7}
 80026f2:	b085      	sub	sp, #20
 80026f4:	af00      	add	r7, sp, #0
 80026f6:	6078      	str	r0, [r7, #4]
 80026f8:	460b      	mov	r3, r1
 80026fa:	807b      	strh	r3, [r7, #2]
  uint16_t tmpccmr2 = 0;
 80026fc:	f04f 0300 	mov.w	r3, #0
 8002700:	81fb      	strh	r3, [r7, #14]

  /* Check the parameters */
  assert_param(IS_TIM_LIST3_PERIPH(TIMx));
  assert_param(IS_TIM_OCPRELOAD_STATE(TIM_OCPreload));

  tmpccmr2 = TIMx->CCMR2;
 8002702:	687b      	ldr	r3, [r7, #4]
 8002704:	8b9b      	ldrh	r3, [r3, #28]
 8002706:	81fb      	strh	r3, [r7, #14]

  /* Reset the OC3PE Bit */
  tmpccmr2 &= (uint16_t)(~TIM_CCMR2_OC3PE);
 8002708:	89fb      	ldrh	r3, [r7, #14]
 800270a:	f023 0308 	bic.w	r3, r3, #8
 800270e:	81fb      	strh	r3, [r7, #14]

  /* Enable or Disable the Output Compare Preload feature */
  tmpccmr2 |= TIM_OCPreload;
 8002710:	89fa      	ldrh	r2, [r7, #14]
 8002712:	887b      	ldrh	r3, [r7, #2]
 8002714:	4313      	orrs	r3, r2
 8002716:	81fb      	strh	r3, [r7, #14]

  /* Write to TIMx CCMR2 register */
  TIMx->CCMR2 = tmpccmr2;
 8002718:	687b      	ldr	r3, [r7, #4]
 800271a:	89fa      	ldrh	r2, [r7, #14]
 800271c:	839a      	strh	r2, [r3, #28]
}
 800271e:	f107 0714 	add.w	r7, r7, #20
 8002722:	46bd      	mov	sp, r7
 8002724:	bc80      	pop	{r7}
 8002726:	4770      	bx	lr

08002728 <TIM_OC4PreloadConfig>:
  *            @arg TIM_OCPreload_Enable
  *            @arg TIM_OCPreload_Disable
  * @retval None
  */
void TIM_OC4PreloadConfig(TIM_TypeDef* TIMx, uint16_t TIM_OCPreload)
{
 8002728:	b480      	push	{r7}
 800272a:	b085      	sub	sp, #20
 800272c:	af00      	add	r7, sp, #0
 800272e:	6078      	str	r0, [r7, #4]
 8002730:	460b      	mov	r3, r1
 8002732:	807b      	strh	r3, [r7, #2]
  uint16_t tmpccmr2 = 0;
 8002734:	f04f 0300 	mov.w	r3, #0
 8002738:	81fb      	strh	r3, [r7, #14]

  /* Check the parameters */
  assert_param(IS_TIM_LIST3_PERIPH(TIMx));
  assert_param(IS_TIM_OCPRELOAD_STATE(TIM_OCPreload));

  tmpccmr2 = TIMx->CCMR2;
 800273a:	687b      	ldr	r3, [r7, #4]
 800273c:	8b9b      	ldrh	r3, [r3, #28]
 800273e:	81fb      	strh	r3, [r7, #14]

  /* Reset the OC4PE Bit */
  tmpccmr2 &= (uint16_t)(~TIM_CCMR2_OC4PE);
 8002740:	89fb      	ldrh	r3, [r7, #14]
 8002742:	f423 6300 	bic.w	r3, r3, #2048	; 0x800
 8002746:	81fb      	strh	r3, [r7, #14]

  /* Enable or Disable the Output Compare Preload feature */
  tmpccmr2 |= (uint16_t)(TIM_OCPreload << 8);
 8002748:	887b      	ldrh	r3, [r7, #2]
 800274a:	ea4f 2303 	mov.w	r3, r3, lsl #8
 800274e:	b29a      	uxth	r2, r3
 8002750:	89fb      	ldrh	r3, [r7, #14]
 8002752:	4313      	orrs	r3, r2
 8002754:	81fb      	strh	r3, [r7, #14]

  /* Write to TIMx CCMR2 register */
  TIMx->CCMR2 = tmpccmr2;
 8002756:	687b      	ldr	r3, [r7, #4]
 8002758:	89fa      	ldrh	r2, [r7, #14]
 800275a:	839a      	strh	r2, [r3, #28]
}
 800275c:	f107 0714 	add.w	r7, r7, #20
 8002760:	46bd      	mov	sp, r7
 8002762:	bc80      	pop	{r7}
 8002764:	4770      	bx	lr
 8002766:	bf00      	nop

08002768 <TIM_OC1FastConfig>:
  *            @arg TIM_OCFast_Enable: TIM output compare fast enable
  *            @arg TIM_OCFast_Disable: TIM output compare fast disable
  * @retval None
  */
void TIM_OC1FastConfig(TIM_TypeDef* TIMx, uint16_t TIM_OCFast)
{
 8002768:	b480      	push	{r7}
 800276a:	b085      	sub	sp, #20
 800276c:	af00      	add	r7, sp, #0
 800276e:	6078      	str	r0, [r7, #4]
 8002770:	460b      	mov	r3, r1
 8002772:	807b      	strh	r3, [r7, #2]
  uint16_t tmpccmr1 = 0;
 8002774:	f04f 0300 	mov.w	r3, #0
 8002778:	81fb      	strh	r3, [r7, #14]
  /* Check the parameters */
  assert_param(IS_TIM_LIST1_PERIPH(TIMx));
  assert_param(IS_TIM_OCFAST_STATE(TIM_OCFast));

  /* Get the TIMx CCMR1 register value */
  tmpccmr1 = TIMx->CCMR1;
 800277a:	687b      	ldr	r3, [r7, #4]
 800277c:	8b1b      	ldrh	r3, [r3, #24]
 800277e:	81fb      	strh	r3, [r7, #14]

  /* Reset the OC1FE Bit */
  tmpccmr1 &= (uint16_t)~TIM_CCMR1_OC1FE;
 8002780:	89fb      	ldrh	r3, [r7, #14]
 8002782:	f023 0304 	bic.w	r3, r3, #4
 8002786:	81fb      	strh	r3, [r7, #14]

  /* Enable or Disable the Output Compare Fast Bit */
  tmpccmr1 |= TIM_OCFast;
 8002788:	89fa      	ldrh	r2, [r7, #14]
 800278a:	887b      	ldrh	r3, [r7, #2]
 800278c:	4313      	orrs	r3, r2
 800278e:	81fb      	strh	r3, [r7, #14]

  /* Write to TIMx CCMR1 */
  TIMx->CCMR1 = tmpccmr1;
 8002790:	687b      	ldr	r3, [r7, #4]
 8002792:	89fa      	ldrh	r2, [r7, #14]
 8002794:	831a      	strh	r2, [r3, #24]
}
 8002796:	f107 0714 	add.w	r7, r7, #20
 800279a:	46bd      	mov	sp, r7
 800279c:	bc80      	pop	{r7}
 800279e:	4770      	bx	lr

080027a0 <TIM_OC2FastConfig>:
  *            @arg TIM_OCFast_Enable: TIM output compare fast enable
  *            @arg TIM_OCFast_Disable: TIM output compare fast disable
  * @retval None
  */
void TIM_OC2FastConfig(TIM_TypeDef* TIMx, uint16_t TIM_OCFast)
{
 80027a0:	b480      	push	{r7}
 80027a2:	b085      	sub	sp, #20
 80027a4:	af00      	add	r7, sp, #0
 80027a6:	6078      	str	r0, [r7, #4]
 80027a8:	460b      	mov	r3, r1
 80027aa:	807b      	strh	r3, [r7, #2]
  uint16_t tmpccmr1 = 0;
 80027ac:	f04f 0300 	mov.w	r3, #0
 80027b0:	81fb      	strh	r3, [r7, #14]
  /* Check the parameters */
  assert_param(IS_TIM_LIST2_PERIPH(TIMx));
  assert_param(IS_TIM_OCFAST_STATE(TIM_OCFast));

  /* Get the TIMx CCMR1 register value */
  tmpccmr1 = TIMx->CCMR1;
 80027b2:	687b      	ldr	r3, [r7, #4]
 80027b4:	8b1b      	ldrh	r3, [r3, #24]
 80027b6:	81fb      	strh	r3, [r7, #14]

  /* Reset the OC2FE Bit */
  tmpccmr1 &= (uint16_t)(~TIM_CCMR1_OC2FE);
 80027b8:	89fb      	ldrh	r3, [r7, #14]
 80027ba:	f423 6380 	bic.w	r3, r3, #1024	; 0x400
 80027be:	81fb      	strh	r3, [r7, #14]

  /* Enable or Disable the Output Compare Fast Bit */
  tmpccmr1 |= (uint16_t)(TIM_OCFast << 8);
 80027c0:	887b      	ldrh	r3, [r7, #2]
 80027c2:	ea4f 2303 	mov.w	r3, r3, lsl #8
 80027c6:	b29a      	uxth	r2, r3
 80027c8:	89fb      	ldrh	r3, [r7, #14]
 80027ca:	4313      	orrs	r3, r2
 80027cc:	81fb      	strh	r3, [r7, #14]

  /* Write to TIMx CCMR1 */
  TIMx->CCMR1 = tmpccmr1;
 80027ce:	687b      	ldr	r3, [r7, #4]
 80027d0:	89fa      	ldrh	r2, [r7, #14]
 80027d2:	831a      	strh	r2, [r3, #24]
}
 80027d4:	f107 0714 	add.w	r7, r7, #20
 80027d8:	46bd      	mov	sp, r7
 80027da:	bc80      	pop	{r7}
 80027dc:	4770      	bx	lr
 80027de:	bf00      	nop

080027e0 <TIM_OC3FastConfig>:
  *            @arg TIM_OCFast_Enable: TIM output compare fast enable
  *            @arg TIM_OCFast_Disable: TIM output compare fast disable
  * @retval None
  */
void TIM_OC3FastConfig(TIM_TypeDef* TIMx, uint16_t TIM_OCFast)
{
 80027e0:	b480      	push	{r7}
 80027e2:	b085      	sub	sp, #20
 80027e4:	af00      	add	r7, sp, #0
 80027e6:	6078      	str	r0, [r7, #4]
 80027e8:	460b      	mov	r3, r1
 80027ea:	807b      	strh	r3, [r7, #2]
  uint16_t tmpccmr2 = 0;
 80027ec:	f04f 0300 	mov.w	r3, #0
 80027f0:	81fb      	strh	r3, [r7, #14]
  /* Check the parameters */
  assert_param(IS_TIM_LIST3_PERIPH(TIMx));
  assert_param(IS_TIM_OCFAST_STATE(TIM_OCFast));

  /* Get the TIMx CCMR2 register value */
  tmpccmr2 = TIMx->CCMR2;
 80027f2:	687b      	ldr	r3, [r7, #4]
 80027f4:	8b9b      	ldrh	r3, [r3, #28]
 80027f6:	81fb      	strh	r3, [r7, #14]

  /* Reset the OC3FE Bit */
  tmpccmr2 &= (uint16_t)~TIM_CCMR2_OC3FE;
 80027f8:	89fb      	ldrh	r3, [r7, #14]
 80027fa:	f023 0304 	bic.w	r3, r3, #4
 80027fe:	81fb      	strh	r3, [r7, #14]

  /* Enable or Disable the Output Compare Fast Bit */
  tmpccmr2 |= TIM_OCFast;
 8002800:	89fa      	ldrh	r2, [r7, #14]
 8002802:	887b      	ldrh	r3, [r7, #2]
 8002804:	4313      	orrs	r3, r2
 8002806:	81fb      	strh	r3, [r7, #14]

  /* Write to TIMx CCMR2 */
  TIMx->CCMR2 = tmpccmr2;
 8002808:	687b      	ldr	r3, [r7, #4]
 800280a:	89fa      	ldrh	r2, [r7, #14]
 800280c:	839a      	strh	r2, [r3, #28]
}
 800280e:	f107 0714 	add.w	r7, r7, #20
 8002812:	46bd      	mov	sp, r7
 8002814:	bc80      	pop	{r7}
 8002816:	4770      	bx	lr

08002818 <TIM_OC4FastConfig>:
  *            @arg TIM_OCFast_Enable: TIM output compare fast enable
  *            @arg TIM_OCFast_Disable: TIM output compare fast disable
  * @retval None
  */
void TIM_OC4FastConfig(TIM_TypeDef* TIMx, uint16_t TIM_OCFast)
{
 8002818:	b480      	push	{r7}
 800281a:	b085      	sub	sp, #20
 800281c:	af00      	add	r7, sp, #0
 800281e:	6078      	str	r0, [r7, #4]
 8002820:	460b      	mov	r3, r1
 8002822:	807b      	strh	r3, [r7, #2]
  uint16_t tmpccmr2 = 0;
 8002824:	f04f 0300 	mov.w	r3, #0
 8002828:	81fb      	strh	r3, [r7, #14]
  /* Check the parameters */
  assert_param(IS_TIM_LIST3_PERIPH(TIMx));
  assert_param(IS_TIM_OCFAST_STATE(TIM_OCFast));

  /* Get the TIMx CCMR2 register value */
  tmpccmr2 = TIMx->CCMR2;
 800282a:	687b      	ldr	r3, [r7, #4]
 800282c:	8b9b      	ldrh	r3, [r3, #28]
 800282e:	81fb      	strh	r3, [r7, #14]

  /* Reset the OC4FE Bit */
  tmpccmr2 &= (uint16_t)(~TIM_CCMR2_OC4FE);
 8002830:	89fb      	ldrh	r3, [r7, #14]
 8002832:	f423 6380 	bic.w	r3, r3, #1024	; 0x400
 8002836:	81fb      	strh	r3, [r7, #14]

  /* Enable or Disable the Output Compare Fast Bit */
  tmpccmr2 |= (uint16_t)(TIM_OCFast << 8);
 8002838:	887b      	ldrh	r3, [r7, #2]
 800283a:	ea4f 2303 	mov.w	r3, r3, lsl #8
 800283e:	b29a      	uxth	r2, r3
 8002840:	89fb      	ldrh	r3, [r7, #14]
 8002842:	4313      	orrs	r3, r2
 8002844:	81fb      	strh	r3, [r7, #14]

  /* Write to TIMx CCMR2 */
  TIMx->CCMR2 = tmpccmr2;
 8002846:	687b      	ldr	r3, [r7, #4]
 8002848:	89fa      	ldrh	r2, [r7, #14]
 800284a:	839a      	strh	r2, [r3, #28]
}
 800284c:	f107 0714 	add.w	r7, r7, #20
 8002850:	46bd      	mov	sp, r7
 8002852:	bc80      	pop	{r7}
 8002854:	4770      	bx	lr
 8002856:	bf00      	nop

08002858 <TIM_ClearOC1Ref>:
  *            @arg TIM_OCClear_Enable: TIM Output clear enable
  *            @arg TIM_OCClear_Disable: TIM Output clear disable
  * @retval None
  */
void TIM_ClearOC1Ref(TIM_TypeDef* TIMx, uint16_t TIM_OCClear)
{
 8002858:	b480      	push	{r7}
 800285a:	b085      	sub	sp, #20
 800285c:	af00      	add	r7, sp, #0
 800285e:	6078      	str	r0, [r7, #4]
 8002860:	460b      	mov	r3, r1
 8002862:	807b      	strh	r3, [r7, #2]
  uint16_t tmpccmr1 = 0;
 8002864:	f04f 0300 	mov.w	r3, #0
 8002868:	81fb      	strh	r3, [r7, #14]

  /* Check the parameters */
  assert_param(IS_TIM_LIST1_PERIPH(TIMx));
  assert_param(IS_TIM_OCCLEAR_STATE(TIM_OCClear));

  tmpccmr1 = TIMx->CCMR1;
 800286a:	687b      	ldr	r3, [r7, #4]
 800286c:	8b1b      	ldrh	r3, [r3, #24]
 800286e:	81fb      	strh	r3, [r7, #14]

  /* Reset the OC1CE Bit */
  tmpccmr1 &= (uint16_t)~TIM_CCMR1_OC1CE;
 8002870:	89fb      	ldrh	r3, [r7, #14]
 8002872:	f023 0380 	bic.w	r3, r3, #128	; 0x80
 8002876:	81fb      	strh	r3, [r7, #14]

  /* Enable or Disable the Output Compare Clear Bit */
  tmpccmr1 |= TIM_OCClear;
 8002878:	89fa      	ldrh	r2, [r7, #14]
 800287a:	887b      	ldrh	r3, [r7, #2]
 800287c:	4313      	orrs	r3, r2
 800287e:	81fb      	strh	r3, [r7, #14]

  /* Write to TIMx CCMR1 register */
  TIMx->CCMR1 = tmpccmr1;
 8002880:	687b      	ldr	r3, [r7, #4]
 8002882:	89fa      	ldrh	r2, [r7, #14]
 8002884:	831a      	strh	r2, [r3, #24]
}
 8002886:	f107 0714 	add.w	r7, r7, #20
 800288a:	46bd      	mov	sp, r7
 800288c:	bc80      	pop	{r7}
 800288e:	4770      	bx	lr

08002890 <TIM_ClearOC2Ref>:
  *            @arg TIM_OCClear_Enable: TIM Output clear enable
  *            @arg TIM_OCClear_Disable: TIM Output clear disable
  * @retval None
  */
void TIM_ClearOC2Ref(TIM_TypeDef* TIMx, uint16_t TIM_OCClear)
{
 8002890:	b480      	push	{r7}
 8002892:	b085      	sub	sp, #20
 8002894:	af00      	add	r7, sp, #0
 8002896:	6078      	str	r0, [r7, #4]
 8002898:	460b      	mov	r3, r1
 800289a:	807b      	strh	r3, [r7, #2]
  uint16_t tmpccmr1 = 0;
 800289c:	f04f 0300 	mov.w	r3, #0
 80028a0:	81fb      	strh	r3, [r7, #14]

  /* Check the parameters */
  assert_param(IS_TIM_LIST2_PERIPH(TIMx));
  assert_param(IS_TIM_OCCLEAR_STATE(TIM_OCClear));

  tmpccmr1 = TIMx->CCMR1;
 80028a2:	687b      	ldr	r3, [r7, #4]
 80028a4:	8b1b      	ldrh	r3, [r3, #24]
 80028a6:	81fb      	strh	r3, [r7, #14]

  /* Reset the OC2CE Bit */
  tmpccmr1 &= (uint16_t)~TIM_CCMR1_OC2CE;
 80028a8:	89fb      	ldrh	r3, [r7, #14]
 80028aa:	ea4f 4343 	mov.w	r3, r3, lsl #17
 80028ae:	ea4f 4353 	mov.w	r3, r3, lsr #17
 80028b2:	81fb      	strh	r3, [r7, #14]

  /* Enable or Disable the Output Compare Clear Bit */
  tmpccmr1 |= (uint16_t)(TIM_OCClear << 8);
 80028b4:	887b      	ldrh	r3, [r7, #2]
 80028b6:	ea4f 2303 	mov.w	r3, r3, lsl #8
 80028ba:	b29a      	uxth	r2, r3
 80028bc:	89fb      	ldrh	r3, [r7, #14]
 80028be:	4313      	orrs	r3, r2
 80028c0:	81fb      	strh	r3, [r7, #14]

  /* Write to TIMx CCMR1 register */
  TIMx->CCMR1 = tmpccmr1;
 80028c2:	687b      	ldr	r3, [r7, #4]
 80028c4:	89fa      	ldrh	r2, [r7, #14]
 80028c6:	831a      	strh	r2, [r3, #24]
}
 80028c8:	f107 0714 	add.w	r7, r7, #20
 80028cc:	46bd      	mov	sp, r7
 80028ce:	bc80      	pop	{r7}
 80028d0:	4770      	bx	lr
 80028d2:	bf00      	nop

080028d4 <TIM_ClearOC3Ref>:
  *            @arg TIM_OCClear_Enable: TIM Output clear enable
  *            @arg TIM_OCClear_Disable: TIM Output clear disable
  * @retval None
  */
void TIM_ClearOC3Ref(TIM_TypeDef* TIMx, uint16_t TIM_OCClear)
{
 80028d4:	b480      	push	{r7}
 80028d6:	b085      	sub	sp, #20
 80028d8:	af00      	add	r7, sp, #0
 80028da:	6078      	str	r0, [r7, #4]
 80028dc:	460b      	mov	r3, r1
 80028de:	807b      	strh	r3, [r7, #2]
  uint16_t tmpccmr2 = 0;
 80028e0:	f04f 0300 	mov.w	r3, #0
 80028e4:	81fb      	strh	r3, [r7, #14]

  /* Check the parameters */
  assert_param(IS_TIM_LIST3_PERIPH(TIMx));
  assert_param(IS_TIM_OCCLEAR_STATE(TIM_OCClear));

  tmpccmr2 = TIMx->CCMR2;
 80028e6:	687b      	ldr	r3, [r7, #4]
 80028e8:	8b9b      	ldrh	r3, [r3, #28]
 80028ea:	81fb      	strh	r3, [r7, #14]

  /* Reset the OC3CE Bit */
  tmpccmr2 &= (uint16_t)~TIM_CCMR2_OC3CE;
 80028ec:	89fb      	ldrh	r3, [r7, #14]
 80028ee:	f023 0380 	bic.w	r3, r3, #128	; 0x80
 80028f2:	81fb      	strh	r3, [r7, #14]

  /* Enable or Disable the Output Compare Clear Bit */
  tmpccmr2 |= TIM_OCClear;
 80028f4:	89fa      	ldrh	r2, [r7, #14]
 80028f6:	887b      	ldrh	r3, [r7, #2]
 80028f8:	4313      	orrs	r3, r2
 80028fa:	81fb      	strh	r3, [r7, #14]

  /* Write to TIMx CCMR2 register */
  TIMx->CCMR2 = tmpccmr2;
 80028fc:	687b      	ldr	r3, [r7, #4]
 80028fe:	89fa      	ldrh	r2, [r7, #14]
 8002900:	839a      	strh	r2, [r3, #28]
}
 8002902:	f107 0714 	add.w	r7, r7, #20
 8002906:	46bd      	mov	sp, r7
 8002908:	bc80      	pop	{r7}
 800290a:	4770      	bx	lr

0800290c <TIM_ClearOC4Ref>:
  *            @arg TIM_OCClear_Enable: TIM Output clear enable
  *            @arg TIM_OCClear_Disable: TIM Output clear disable
  * @retval None
  */
void TIM_ClearOC4Ref(TIM_TypeDef* TIMx, uint16_t TIM_OCClear)
{
 800290c:	b480      	push	{r7}
 800290e:	b085      	sub	sp, #20
 8002910:	af00      	add	r7, sp, #0
 8002912:	6078      	str	r0, [r7, #4]
 8002914:	460b      	mov	r3, r1
 8002916:	807b      	strh	r3, [r7, #2]
  uint16_t tmpccmr2 = 0;
 8002918:	f04f 0300 	mov.w	r3, #0
 800291c:	81fb      	strh	r3, [r7, #14]

  /* Check the parameters */
  assert_param(IS_TIM_LIST3_PERIPH(TIMx));
  assert_param(IS_TIM_OCCLEAR_STATE(TIM_OCClear));

  tmpccmr2 = TIMx->CCMR2;
 800291e:	687b      	ldr	r3, [r7, #4]
 8002920:	8b9b      	ldrh	r3, [r3, #28]
 8002922:	81fb      	strh	r3, [r7, #14]

  /* Reset the OC4CE Bit */
  tmpccmr2 &= (uint16_t)~TIM_CCMR2_OC4CE;
 8002924:	89fb      	ldrh	r3, [r7, #14]
 8002926:	ea4f 4343 	mov.w	r3, r3, lsl #17
 800292a:	ea4f 4353 	mov.w	r3, r3, lsr #17
 800292e:	81fb      	strh	r3, [r7, #14]

  /* Enable or Disable the Output Compare Clear Bit */
  tmpccmr2 |= (uint16_t)(TIM_OCClear << 8);
 8002930:	887b      	ldrh	r3, [r7, #2]
 8002932:	ea4f 2303 	mov.w	r3, r3, lsl #8
 8002936:	b29a      	uxth	r2, r3
 8002938:	89fb      	ldrh	r3, [r7, #14]
 800293a:	4313      	orrs	r3, r2
 800293c:	81fb      	strh	r3, [r7, #14]

  /* Write to TIMx CCMR2 register */
  TIMx->CCMR2 = tmpccmr2;
 800293e:	687b      	ldr	r3, [r7, #4]
 8002940:	89fa      	ldrh	r2, [r7, #14]
 8002942:	839a      	strh	r2, [r3, #28]
}
 8002944:	f107 0714 	add.w	r7, r7, #20
 8002948:	46bd      	mov	sp, r7
 800294a:	bc80      	pop	{r7}
 800294c:	4770      	bx	lr
 800294e:	bf00      	nop

08002950 <TIM_OC1PolarityConfig>:
  *            @arg TIM_OCPolarity_High: Output Compare active high
  *            @arg TIM_OCPolarity_Low: Output Compare active low
  * @retval None
  */
void TIM_OC1PolarityConfig(TIM_TypeDef* TIMx, uint16_t TIM_OCPolarity)
{
 8002950:	b480      	push	{r7}
 8002952:	b085      	sub	sp, #20
 8002954:	af00      	add	r7, sp, #0
 8002956:	6078      	str	r0, [r7, #4]
 8002958:	460b      	mov	r3, r1
 800295a:	807b      	strh	r3, [r7, #2]
  uint16_t tmpccer = 0;
 800295c:	f04f 0300 	mov.w	r3, #0
 8002960:	81fb      	strh	r3, [r7, #14]

  /* Check the parameters */
  assert_param(IS_TIM_LIST1_PERIPH(TIMx));
  assert_param(IS_TIM_OC_POLARITY(TIM_OCPolarity));

  tmpccer = TIMx->CCER;
 8002962:	687b      	ldr	r3, [r7, #4]
 8002964:	8c1b      	ldrh	r3, [r3, #32]
 8002966:	81fb      	strh	r3, [r7, #14]

  /* Set or Reset the CC1P Bit */
  tmpccer &= (uint16_t)(~TIM_CCER_CC1P);
 8002968:	89fb      	ldrh	r3, [r7, #14]
 800296a:	f023 0302 	bic.w	r3, r3, #2
 800296e:	81fb      	strh	r3, [r7, #14]
  tmpccer |= TIM_OCPolarity;
 8002970:	89fa      	ldrh	r2, [r7, #14]
 8002972:	887b      	ldrh	r3, [r7, #2]
 8002974:	4313      	orrs	r3, r2
 8002976:	81fb      	strh	r3, [r7, #14]

  /* Write to TIMx CCER register */
  TIMx->CCER = tmpccer;
 8002978:	687b      	ldr	r3, [r7, #4]
 800297a:	89fa      	ldrh	r2, [r7, #14]
 800297c:	841a      	strh	r2, [r3, #32]
}
 800297e:	f107 0714 	add.w	r7, r7, #20
 8002982:	46bd      	mov	sp, r7
 8002984:	bc80      	pop	{r7}
 8002986:	4770      	bx	lr

08002988 <TIM_OC1NPolarityConfig>:
  *            @arg TIM_OCNPolarity_High: Output Compare active high
  *            @arg TIM_OCNPolarity_Low: Output Compare active low
  * @retval None
  */
void TIM_OC1NPolarityConfig(TIM_TypeDef* TIMx, uint16_t TIM_OCNPolarity)
{
 8002988:	b480      	push	{r7}
 800298a:	b085      	sub	sp, #20
 800298c:	af00      	add	r7, sp, #0
 800298e:	6078      	str	r0, [r7, #4]
 8002990:	460b      	mov	r3, r1
 8002992:	807b      	strh	r3, [r7, #2]
  uint16_t tmpccer = 0;
 8002994:	f04f 0300 	mov.w	r3, #0
 8002998:	81fb      	strh	r3, [r7, #14]
  /* Check the parameters */
  assert_param(IS_TIM_LIST4_PERIPH(TIMx));
  assert_param(IS_TIM_OCN_POLARITY(TIM_OCNPolarity));
   
  tmpccer = TIMx->CCER;
 800299a:	687b      	ldr	r3, [r7, #4]
 800299c:	8c1b      	ldrh	r3, [r3, #32]
 800299e:	81fb      	strh	r3, [r7, #14]

  /* Set or Reset the CC1NP Bit */
  tmpccer &= (uint16_t)~TIM_CCER_CC1NP;
 80029a0:	89fb      	ldrh	r3, [r7, #14]
 80029a2:	f023 0308 	bic.w	r3, r3, #8
 80029a6:	81fb      	strh	r3, [r7, #14]
  tmpccer |= TIM_OCNPolarity;
 80029a8:	89fa      	ldrh	r2, [r7, #14]
 80029aa:	887b      	ldrh	r3, [r7, #2]
 80029ac:	4313      	orrs	r3, r2
 80029ae:	81fb      	strh	r3, [r7, #14]

  /* Write to TIMx CCER register */
  TIMx->CCER = tmpccer;
 80029b0:	687b      	ldr	r3, [r7, #4]
 80029b2:	89fa      	ldrh	r2, [r7, #14]
 80029b4:	841a      	strh	r2, [r3, #32]
}
 80029b6:	f107 0714 	add.w	r7, r7, #20
 80029ba:	46bd      	mov	sp, r7
 80029bc:	bc80      	pop	{r7}
 80029be:	4770      	bx	lr

080029c0 <TIM_OC2PolarityConfig>:
  *            @arg TIM_OCPolarity_High: Output Compare active high
  *            @arg TIM_OCPolarity_Low: Output Compare active low
  * @retval None
  */
void TIM_OC2PolarityConfig(TIM_TypeDef* TIMx, uint16_t TIM_OCPolarity)
{
 80029c0:	b480      	push	{r7}
 80029c2:	b085      	sub	sp, #20
 80029c4:	af00      	add	r7, sp, #0
 80029c6:	6078      	str	r0, [r7, #4]
 80029c8:	460b      	mov	r3, r1
 80029ca:	807b      	strh	r3, [r7, #2]
  uint16_t tmpccer = 0;
 80029cc:	f04f 0300 	mov.w	r3, #0
 80029d0:	81fb      	strh	r3, [r7, #14]

  /* Check the parameters */
  assert_param(IS_TIM_LIST2_PERIPH(TIMx));
  assert_param(IS_TIM_OC_POLARITY(TIM_OCPolarity));

  tmpccer = TIMx->CCER;
 80029d2:	687b      	ldr	r3, [r7, #4]
 80029d4:	8c1b      	ldrh	r3, [r3, #32]
 80029d6:	81fb      	strh	r3, [r7, #14]

  /* Set or Reset the CC2P Bit */
  tmpccer &= (uint16_t)(~TIM_CCER_CC2P);
 80029d8:	89fb      	ldrh	r3, [r7, #14]
 80029da:	f023 0320 	bic.w	r3, r3, #32
 80029de:	81fb      	strh	r3, [r7, #14]
  tmpccer |= (uint16_t)(TIM_OCPolarity << 4);
 80029e0:	887b      	ldrh	r3, [r7, #2]
 80029e2:	ea4f 1303 	mov.w	r3, r3, lsl #4
 80029e6:	b29a      	uxth	r2, r3
 80029e8:	89fb      	ldrh	r3, [r7, #14]
 80029ea:	4313      	orrs	r3, r2
 80029ec:	81fb      	strh	r3, [r7, #14]

  /* Write to TIMx CCER register */
  TIMx->CCER = tmpccer;
 80029ee:	687b      	ldr	r3, [r7, #4]
 80029f0:	89fa      	ldrh	r2, [r7, #14]
 80029f2:	841a      	strh	r2, [r3, #32]
}
 80029f4:	f107 0714 	add.w	r7, r7, #20
 80029f8:	46bd      	mov	sp, r7
 80029fa:	bc80      	pop	{r7}
 80029fc:	4770      	bx	lr
 80029fe:	bf00      	nop

08002a00 <TIM_OC2NPolarityConfig>:
  *            @arg TIM_OCNPolarity_High: Output Compare active high
  *            @arg TIM_OCNPolarity_Low: Output Compare active low
  * @retval None
  */
void TIM_OC2NPolarityConfig(TIM_TypeDef* TIMx, uint16_t TIM_OCNPolarity)
{
 8002a00:	b480      	push	{r7}
 8002a02:	b085      	sub	sp, #20
 8002a04:	af00      	add	r7, sp, #0
 8002a06:	6078      	str	r0, [r7, #4]
 8002a08:	460b      	mov	r3, r1
 8002a0a:	807b      	strh	r3, [r7, #2]
  uint16_t tmpccer = 0;
 8002a0c:	f04f 0300 	mov.w	r3, #0
 8002a10:	81fb      	strh	r3, [r7, #14]

  /* Check the parameters */
  assert_param(IS_TIM_LIST4_PERIPH(TIMx));
  assert_param(IS_TIM_OCN_POLARITY(TIM_OCNPolarity));
  
  tmpccer = TIMx->CCER;
 8002a12:	687b      	ldr	r3, [r7, #4]
 8002a14:	8c1b      	ldrh	r3, [r3, #32]
 8002a16:	81fb      	strh	r3, [r7, #14]

  /* Set or Reset the CC2NP Bit */
  tmpccer &= (uint16_t)~TIM_CCER_CC2NP;
 8002a18:	89fb      	ldrh	r3, [r7, #14]
 8002a1a:	f023 0380 	bic.w	r3, r3, #128	; 0x80
 8002a1e:	81fb      	strh	r3, [r7, #14]
  tmpccer |= (uint16_t)(TIM_OCNPolarity << 4);
 8002a20:	887b      	ldrh	r3, [r7, #2]
 8002a22:	ea4f 1303 	mov.w	r3, r3, lsl #4
 8002a26:	b29a      	uxth	r2, r3
 8002a28:	89fb      	ldrh	r3, [r7, #14]
 8002a2a:	4313      	orrs	r3, r2
 8002a2c:	81fb      	strh	r3, [r7, #14]

  /* Write to TIMx CCER register */
  TIMx->CCER = tmpccer;
 8002a2e:	687b      	ldr	r3, [r7, #4]
 8002a30:	89fa      	ldrh	r2, [r7, #14]
 8002a32:	841a      	strh	r2, [r3, #32]
}
 8002a34:	f107 0714 	add.w	r7, r7, #20
 8002a38:	46bd      	mov	sp, r7
 8002a3a:	bc80      	pop	{r7}
 8002a3c:	4770      	bx	lr
 8002a3e:	bf00      	nop

08002a40 <TIM_OC3PolarityConfig>:
  *            @arg TIM_OCPolarity_High: Output Compare active high
  *            @arg TIM_OCPolarity_Low: Output Compare active low
  * @retval None
  */
void TIM_OC3PolarityConfig(TIM_TypeDef* TIMx, uint16_t TIM_OCPolarity)
{
 8002a40:	b480      	push	{r7}
 8002a42:	b085      	sub	sp, #20
 8002a44:	af00      	add	r7, sp, #0
 8002a46:	6078      	str	r0, [r7, #4]
 8002a48:	460b      	mov	r3, r1
 8002a4a:	807b      	strh	r3, [r7, #2]
  uint16_t tmpccer = 0;
 8002a4c:	f04f 0300 	mov.w	r3, #0
 8002a50:	81fb      	strh	r3, [r7, #14]

  /* Check the parameters */
  assert_param(IS_TIM_LIST3_PERIPH(TIMx));
  assert_param(IS_TIM_OC_POLARITY(TIM_OCPolarity));

  tmpccer = TIMx->CCER;
 8002a52:	687b      	ldr	r3, [r7, #4]
 8002a54:	8c1b      	ldrh	r3, [r3, #32]
 8002a56:	81fb      	strh	r3, [r7, #14]

  /* Set or Reset the CC3P Bit */
  tmpccer &= (uint16_t)~TIM_CCER_CC3P;
 8002a58:	89fb      	ldrh	r3, [r7, #14]
 8002a5a:	f423 7300 	bic.w	r3, r3, #512	; 0x200
 8002a5e:	81fb      	strh	r3, [r7, #14]
  tmpccer |= (uint16_t)(TIM_OCPolarity << 8);
 8002a60:	887b      	ldrh	r3, [r7, #2]
 8002a62:	ea4f 2303 	mov.w	r3, r3, lsl #8
 8002a66:	b29a      	uxth	r2, r3
 8002a68:	89fb      	ldrh	r3, [r7, #14]
 8002a6a:	4313      	orrs	r3, r2
 8002a6c:	81fb      	strh	r3, [r7, #14]

  /* Write to TIMx CCER register */
  TIMx->CCER = tmpccer;
 8002a6e:	687b      	ldr	r3, [r7, #4]
 8002a70:	89fa      	ldrh	r2, [r7, #14]
 8002a72:	841a      	strh	r2, [r3, #32]
}
 8002a74:	f107 0714 	add.w	r7, r7, #20
 8002a78:	46bd      	mov	sp, r7
 8002a7a:	bc80      	pop	{r7}
 8002a7c:	4770      	bx	lr
 8002a7e:	bf00      	nop

08002a80 <TIM_OC3NPolarityConfig>:
  *            @arg TIM_OCNPolarity_High: Output Compare active high
  *            @arg TIM_OCNPolarity_Low: Output Compare active low
  * @retval None
  */
void TIM_OC3NPolarityConfig(TIM_TypeDef* TIMx, uint16_t TIM_OCNPolarity)
{
 8002a80:	b480      	push	{r7}
 8002a82:	b085      	sub	sp, #20
 8002a84:	af00      	add	r7, sp, #0
 8002a86:	6078      	str	r0, [r7, #4]
 8002a88:	460b      	mov	r3, r1
 8002a8a:	807b      	strh	r3, [r7, #2]
  uint16_t tmpccer = 0;
 8002a8c:	f04f 0300 	mov.w	r3, #0
 8002a90:	81fb      	strh	r3, [r7, #14]
 
  /* Check the parameters */
  assert_param(IS_TIM_LIST4_PERIPH(TIMx));
  assert_param(IS_TIM_OCN_POLARITY(TIM_OCNPolarity));
    
  tmpccer = TIMx->CCER;
 8002a92:	687b      	ldr	r3, [r7, #4]
 8002a94:	8c1b      	ldrh	r3, [r3, #32]
 8002a96:	81fb      	strh	r3, [r7, #14]

  /* Set or Reset the CC3NP Bit */
  tmpccer &= (uint16_t)~TIM_CCER_CC3NP;
 8002a98:	89fb      	ldrh	r3, [r7, #14]
 8002a9a:	f423 6300 	bic.w	r3, r3, #2048	; 0x800
 8002a9e:	81fb      	strh	r3, [r7, #14]
  tmpccer |= (uint16_t)(TIM_OCNPolarity << 8);
 8002aa0:	887b      	ldrh	r3, [r7, #2]
 8002aa2:	ea4f 2303 	mov.w	r3, r3, lsl #8
 8002aa6:	b29a      	uxth	r2, r3
 8002aa8:	89fb      	ldrh	r3, [r7, #14]
 8002aaa:	4313      	orrs	r3, r2
 8002aac:	81fb      	strh	r3, [r7, #14]

  /* Write to TIMx CCER register */
  TIMx->CCER = tmpccer;
 8002aae:	687b      	ldr	r3, [r7, #4]
 8002ab0:	89fa      	ldrh	r2, [r7, #14]
 8002ab2:	841a      	strh	r2, [r3, #32]
}
 8002ab4:	f107 0714 	add.w	r7, r7, #20
 8002ab8:	46bd      	mov	sp, r7
 8002aba:	bc80      	pop	{r7}
 8002abc:	4770      	bx	lr
 8002abe:	bf00      	nop

08002ac0 <TIM_OC4PolarityConfig>:
  *            @arg TIM_OCPolarity_High: Output Compare active high
  *            @arg TIM_OCPolarity_Low: Output Compare active low
  * @retval None
  */
void TIM_OC4PolarityConfig(TIM_TypeDef* TIMx, uint16_t TIM_OCPolarity)
{
 8002ac0:	b480      	push	{r7}
 8002ac2:	b085      	sub	sp, #20
 8002ac4:	af00      	add	r7, sp, #0
 8002ac6:	6078      	str	r0, [r7, #4]
 8002ac8:	460b      	mov	r3, r1
 8002aca:	807b      	strh	r3, [r7, #2]
  uint16_t tmpccer = 0;
 8002acc:	f04f 0300 	mov.w	r3, #0
 8002ad0:	81fb      	strh	r3, [r7, #14]

  /* Check the parameters */
  assert_param(IS_TIM_LIST3_PERIPH(TIMx));
  assert_param(IS_TIM_OC_POLARITY(TIM_OCPolarity));

  tmpccer = TIMx->CCER;
 8002ad2:	687b      	ldr	r3, [r7, #4]
 8002ad4:	8c1b      	ldrh	r3, [r3, #32]
 8002ad6:	81fb      	strh	r3, [r7, #14]

  /* Set or Reset the CC4P Bit */
  tmpccer &= (uint16_t)~TIM_CCER_CC4P;
 8002ad8:	89fb      	ldrh	r3, [r7, #14]
 8002ada:	f423 5300 	bic.w	r3, r3, #8192	; 0x2000
 8002ade:	81fb      	strh	r3, [r7, #14]
  tmpccer |= (uint16_t)(TIM_OCPolarity << 12);
 8002ae0:	887b      	ldrh	r3, [r7, #2]
 8002ae2:	ea4f 3303 	mov.w	r3, r3, lsl #12
 8002ae6:	b29a      	uxth	r2, r3
 8002ae8:	89fb      	ldrh	r3, [r7, #14]
 8002aea:	4313      	orrs	r3, r2
 8002aec:	81fb      	strh	r3, [r7, #14]

  /* Write to TIMx CCER register */
  TIMx->CCER = tmpccer;
 8002aee:	687b      	ldr	r3, [r7, #4]
 8002af0:	89fa      	ldrh	r2, [r7, #14]
 8002af2:	841a      	strh	r2, [r3, #32]
}
 8002af4:	f107 0714 	add.w	r7, r7, #20
 8002af8:	46bd      	mov	sp, r7
 8002afa:	bc80      	pop	{r7}
 8002afc:	4770      	bx	lr
 8002afe:	bf00      	nop

08002b00 <TIM_CCxCmd>:
  * @param  TIM_CCx: specifies the TIM Channel CCxE bit new state.
  *          This parameter can be: TIM_CCx_Enable or TIM_CCx_Disable. 
  * @retval None
  */
void TIM_CCxCmd(TIM_TypeDef* TIMx, uint16_t TIM_Channel, uint16_t TIM_CCx)
{
 8002b00:	b480      	push	{r7}
 8002b02:	b085      	sub	sp, #20
 8002b04:	af00      	add	r7, sp, #0
 8002b06:	6078      	str	r0, [r7, #4]
 8002b08:	4613      	mov	r3, r2
 8002b0a:	460a      	mov	r2, r1
 8002b0c:	807a      	strh	r2, [r7, #2]
 8002b0e:	803b      	strh	r3, [r7, #0]
  uint16_t tmp = 0;
 8002b10:	f04f 0300 	mov.w	r3, #0
 8002b14:	81fb      	strh	r3, [r7, #14]
  /* Check the parameters */
  assert_param(IS_TIM_LIST1_PERIPH(TIMx)); 
  assert_param(IS_TIM_CHANNEL(TIM_Channel));
  assert_param(IS_TIM_CCX(TIM_CCx));

  tmp = CCER_CCE_SET << TIM_Channel;
 8002b16:	887b      	ldrh	r3, [r7, #2]
 8002b18:	f04f 0201 	mov.w	r2, #1
 8002b1c:	fa02 f303 	lsl.w	r3, r2, r3
 8002b20:	81fb      	strh	r3, [r7, #14]

  /* Reset the CCxE Bit */
  TIMx->CCER &= (uint16_t)~ tmp;
 8002b22:	687b      	ldr	r3, [r7, #4]
 8002b24:	8c1b      	ldrh	r3, [r3, #32]
 8002b26:	b29a      	uxth	r2, r3
 8002b28:	89fb      	ldrh	r3, [r7, #14]
 8002b2a:	ea6f 0303 	mvn.w	r3, r3
 8002b2e:	b29b      	uxth	r3, r3
 8002b30:	4013      	ands	r3, r2
 8002b32:	b29a      	uxth	r2, r3
 8002b34:	687b      	ldr	r3, [r7, #4]
 8002b36:	841a      	strh	r2, [r3, #32]

  /* Set or reset the CCxE Bit */ 
  TIMx->CCER |=  (uint16_t)(TIM_CCx << TIM_Channel);
 8002b38:	687b      	ldr	r3, [r7, #4]
 8002b3a:	8c1b      	ldrh	r3, [r3, #32]
 8002b3c:	b29a      	uxth	r2, r3
 8002b3e:	8839      	ldrh	r1, [r7, #0]
 8002b40:	887b      	ldrh	r3, [r7, #2]
 8002b42:	fa01 f303 	lsl.w	r3, r1, r3
 8002b46:	b29b      	uxth	r3, r3
 8002b48:	4313      	orrs	r3, r2
 8002b4a:	b29a      	uxth	r2, r3
 8002b4c:	687b      	ldr	r3, [r7, #4]
 8002b4e:	841a      	strh	r2, [r3, #32]
}
 8002b50:	f107 0714 	add.w	r7, r7, #20
 8002b54:	46bd      	mov	sp, r7
 8002b56:	bc80      	pop	{r7}
 8002b58:	4770      	bx	lr
 8002b5a:	bf00      	nop

08002b5c <TIM_CCxNCmd>:
  * @param  TIM_CCxN: specifies the TIM Channel CCxNE bit new state.
  *          This parameter can be: TIM_CCxN_Enable or TIM_CCxN_Disable. 
  * @retval None
  */
void TIM_CCxNCmd(TIM_TypeDef* TIMx, uint16_t TIM_Channel, uint16_t TIM_CCxN)
{
 8002b5c:	b480      	push	{r7}
 8002b5e:	b085      	sub	sp, #20
 8002b60:	af00      	add	r7, sp, #0
 8002b62:	6078      	str	r0, [r7, #4]
 8002b64:	4613      	mov	r3, r2
 8002b66:	460a      	mov	r2, r1
 8002b68:	807a      	strh	r2, [r7, #2]
 8002b6a:	803b      	strh	r3, [r7, #0]
  uint16_t tmp = 0;
 8002b6c:	f04f 0300 	mov.w	r3, #0
 8002b70:	81fb      	strh	r3, [r7, #14]
  /* Check the parameters */
  assert_param(IS_TIM_LIST4_PERIPH(TIMx));
  assert_param(IS_TIM_COMPLEMENTARY_CHANNEL(TIM_Channel));
  assert_param(IS_TIM_CCXN(TIM_CCxN));

  tmp = CCER_CCNE_SET << TIM_Channel;
 8002b72:	887b      	ldrh	r3, [r7, #2]
 8002b74:	f04f 0204 	mov.w	r2, #4
 8002b78:	fa02 f303 	lsl.w	r3, r2, r3
 8002b7c:	81fb      	strh	r3, [r7, #14]

  /* Reset the CCxNE Bit */
  TIMx->CCER &= (uint16_t) ~tmp;
 8002b7e:	687b      	ldr	r3, [r7, #4]
 8002b80:	8c1b      	ldrh	r3, [r3, #32]
 8002b82:	b29a      	uxth	r2, r3
 8002b84:	89fb      	ldrh	r3, [r7, #14]
 8002b86:	ea6f 0303 	mvn.w	r3, r3
 8002b8a:	b29b      	uxth	r3, r3
 8002b8c:	4013      	ands	r3, r2
 8002b8e:	b29a      	uxth	r2, r3
 8002b90:	687b      	ldr	r3, [r7, #4]
 8002b92:	841a      	strh	r2, [r3, #32]

  /* Set or reset the CCxNE Bit */ 
  TIMx->CCER |=  (uint16_t)(TIM_CCxN << TIM_Channel);
 8002b94:	687b      	ldr	r3, [r7, #4]
 8002b96:	8c1b      	ldrh	r3, [r3, #32]
 8002b98:	b29a      	uxth	r2, r3
 8002b9a:	8839      	ldrh	r1, [r7, #0]
 8002b9c:	887b      	ldrh	r3, [r7, #2]
 8002b9e:	fa01 f303 	lsl.w	r3, r1, r3
 8002ba2:	b29b      	uxth	r3, r3
 8002ba4:	4313      	orrs	r3, r2
 8002ba6:	b29a      	uxth	r2, r3
 8002ba8:	687b      	ldr	r3, [r7, #4]
 8002baa:	841a      	strh	r2, [r3, #32]
}
 8002bac:	f107 0714 	add.w	r7, r7, #20
 8002bb0:	46bd      	mov	sp, r7
 8002bb2:	bc80      	pop	{r7}
 8002bb4:	4770      	bx	lr
 8002bb6:	bf00      	nop

08002bb8 <TIM_ICInit>:
  * @param  TIM_ICInitStruct: pointer to a TIM_ICInitTypeDef structure that contains
  *         the configuration information for the specified TIM peripheral.
  * @retval None
  */
void TIM_ICInit(TIM_TypeDef* TIMx, TIM_ICInitTypeDef* TIM_ICInitStruct)
{
 8002bb8:	b580      	push	{r7, lr}
 8002bba:	b082      	sub	sp, #8
 8002bbc:	af00      	add	r7, sp, #0
 8002bbe:	6078      	str	r0, [r7, #4]
 8002bc0:	6039      	str	r1, [r7, #0]
  assert_param(IS_TIM_IC_POLARITY(TIM_ICInitStruct->TIM_ICPolarity));
  assert_param(IS_TIM_IC_SELECTION(TIM_ICInitStruct->TIM_ICSelection));
  assert_param(IS_TIM_IC_PRESCALER(TIM_ICInitStruct->TIM_ICPrescaler));
  assert_param(IS_TIM_IC_FILTER(TIM_ICInitStruct->TIM_ICFilter));
  
  if (TIM_ICInitStruct->TIM_Channel == TIM_Channel_1)
 8002bc2:	683b      	ldr	r3, [r7, #0]
 8002bc4:	881b      	ldrh	r3, [r3, #0]
 8002bc6:	2b00      	cmp	r3, #0
 8002bc8:	d10f      	bne.n	8002bea <TIM_ICInit+0x32>
  {
    /* TI1 Configuration */
    TI1_Config(TIMx, TIM_ICInitStruct->TIM_ICPolarity,
 8002bca:	683b      	ldr	r3, [r7, #0]
 8002bcc:	8859      	ldrh	r1, [r3, #2]
               TIM_ICInitStruct->TIM_ICSelection,
 8002bce:	683b      	ldr	r3, [r7, #0]
  assert_param(IS_TIM_IC_FILTER(TIM_ICInitStruct->TIM_ICFilter));
  
  if (TIM_ICInitStruct->TIM_Channel == TIM_Channel_1)
  {
    /* TI1 Configuration */
    TI1_Config(TIMx, TIM_ICInitStruct->TIM_ICPolarity,
 8002bd0:	889a      	ldrh	r2, [r3, #4]
               TIM_ICInitStruct->TIM_ICSelection,
               TIM_ICInitStruct->TIM_ICFilter);
 8002bd2:	683b      	ldr	r3, [r7, #0]
  assert_param(IS_TIM_IC_FILTER(TIM_ICInitStruct->TIM_ICFilter));
  
  if (TIM_ICInitStruct->TIM_Channel == TIM_Channel_1)
  {
    /* TI1 Configuration */
    TI1_Config(TIMx, TIM_ICInitStruct->TIM_ICPolarity,
 8002bd4:	891b      	ldrh	r3, [r3, #8]
 8002bd6:	6878      	ldr	r0, [r7, #4]
 8002bd8:	f000 fcc4 	bl	8003564 <TI1_Config>
               TIM_ICInitStruct->TIM_ICSelection,
               TIM_ICInitStruct->TIM_ICFilter);
    /* Set the Input Capture Prescaler value */
    TIM_SetIC1Prescaler(TIMx, TIM_ICInitStruct->TIM_ICPrescaler);
 8002bdc:	683b      	ldr	r3, [r7, #0]
 8002bde:	88db      	ldrh	r3, [r3, #6]
 8002be0:	6878      	ldr	r0, [r7, #4]
 8002be2:	4619      	mov	r1, r3
 8002be4:	f000 f8ec 	bl	8002dc0 <TIM_SetIC1Prescaler>
 8002be8:	e036      	b.n	8002c58 <TIM_ICInit+0xa0>
  }
  else if (TIM_ICInitStruct->TIM_Channel == TIM_Channel_2)
 8002bea:	683b      	ldr	r3, [r7, #0]
 8002bec:	881b      	ldrh	r3, [r3, #0]
 8002bee:	2b04      	cmp	r3, #4
 8002bf0:	d10f      	bne.n	8002c12 <TIM_ICInit+0x5a>
  {
    /* TI2 Configuration */
    assert_param(IS_TIM_LIST2_PERIPH(TIMx));
    TI2_Config(TIMx, TIM_ICInitStruct->TIM_ICPolarity,
 8002bf2:	683b      	ldr	r3, [r7, #0]
 8002bf4:	8859      	ldrh	r1, [r3, #2]
               TIM_ICInitStruct->TIM_ICSelection,
 8002bf6:	683b      	ldr	r3, [r7, #0]
  }
  else if (TIM_ICInitStruct->TIM_Channel == TIM_Channel_2)
  {
    /* TI2 Configuration */
    assert_param(IS_TIM_LIST2_PERIPH(TIMx));
    TI2_Config(TIMx, TIM_ICInitStruct->TIM_ICPolarity,
 8002bf8:	889a      	ldrh	r2, [r3, #4]
               TIM_ICInitStruct->TIM_ICSelection,
               TIM_ICInitStruct->TIM_ICFilter);
 8002bfa:	683b      	ldr	r3, [r7, #0]
  }
  else if (TIM_ICInitStruct->TIM_Channel == TIM_Channel_2)
  {
    /* TI2 Configuration */
    assert_param(IS_TIM_LIST2_PERIPH(TIMx));
    TI2_Config(TIMx, TIM_ICInitStruct->TIM_ICPolarity,
 8002bfc:	891b      	ldrh	r3, [r3, #8]
 8002bfe:	6878      	ldr	r0, [r7, #4]
 8002c00:	f000 fcf0 	bl	80035e4 <TI2_Config>
               TIM_ICInitStruct->TIM_ICSelection,
               TIM_ICInitStruct->TIM_ICFilter);
    /* Set the Input Capture Prescaler value */
    TIM_SetIC2Prescaler(TIMx, TIM_ICInitStruct->TIM_ICPrescaler);
 8002c04:	683b      	ldr	r3, [r7, #0]
 8002c06:	88db      	ldrh	r3, [r3, #6]
 8002c08:	6878      	ldr	r0, [r7, #4]
 8002c0a:	4619      	mov	r1, r3
 8002c0c:	f000 f8f4 	bl	8002df8 <TIM_SetIC2Prescaler>
 8002c10:	e022      	b.n	8002c58 <TIM_ICInit+0xa0>
  }
  else if (TIM_ICInitStruct->TIM_Channel == TIM_Channel_3)
 8002c12:	683b      	ldr	r3, [r7, #0]
 8002c14:	881b      	ldrh	r3, [r3, #0]
 8002c16:	2b08      	cmp	r3, #8
 8002c18:	d10f      	bne.n	8002c3a <TIM_ICInit+0x82>
  {
    /* TI3 Configuration */
    assert_param(IS_TIM_LIST3_PERIPH(TIMx));
    TI3_Config(TIMx,  TIM_ICInitStruct->TIM_ICPolarity,
 8002c1a:	683b      	ldr	r3, [r7, #0]
 8002c1c:	8859      	ldrh	r1, [r3, #2]
               TIM_ICInitStruct->TIM_ICSelection,
 8002c1e:	683b      	ldr	r3, [r7, #0]
  }
  else if (TIM_ICInitStruct->TIM_Channel == TIM_Channel_3)
  {
    /* TI3 Configuration */
    assert_param(IS_TIM_LIST3_PERIPH(TIMx));
    TI3_Config(TIMx,  TIM_ICInitStruct->TIM_ICPolarity,
 8002c20:	889a      	ldrh	r2, [r3, #4]
               TIM_ICInitStruct->TIM_ICSelection,
               TIM_ICInitStruct->TIM_ICFilter);
 8002c22:	683b      	ldr	r3, [r7, #0]
  }
  else if (TIM_ICInitStruct->TIM_Channel == TIM_Channel_3)
  {
    /* TI3 Configuration */
    assert_param(IS_TIM_LIST3_PERIPH(TIMx));
    TI3_Config(TIMx,  TIM_ICInitStruct->TIM_ICPolarity,
 8002c24:	891b      	ldrh	r3, [r3, #8]
 8002c26:	6878      	ldr	r0, [r7, #4]
 8002c28:	f000 fd2a 	bl	8003680 <TI3_Config>
               TIM_ICInitStruct->TIM_ICSelection,
               TIM_ICInitStruct->TIM_ICFilter);
    /* Set the Input Capture Prescaler value */
    TIM_SetIC3Prescaler(TIMx, TIM_ICInitStruct->TIM_ICPrescaler);
 8002c2c:	683b      	ldr	r3, [r7, #0]
 8002c2e:	88db      	ldrh	r3, [r3, #6]
 8002c30:	6878      	ldr	r0, [r7, #4]
 8002c32:	4619      	mov	r1, r3
 8002c34:	f000 f8fe 	bl	8002e34 <TIM_SetIC3Prescaler>
 8002c38:	e00e      	b.n	8002c58 <TIM_ICInit+0xa0>
  }
  else
  {
    /* TI4 Configuration */
    assert_param(IS_TIM_LIST3_PERIPH(TIMx));
    TI4_Config(TIMx, TIM_ICInitStruct->TIM_ICPolarity,
 8002c3a:	683b      	ldr	r3, [r7, #0]
 8002c3c:	8859      	ldrh	r1, [r3, #2]
               TIM_ICInitStruct->TIM_ICSelection,
 8002c3e:	683b      	ldr	r3, [r7, #0]
  }
  else
  {
    /* TI4 Configuration */
    assert_param(IS_TIM_LIST3_PERIPH(TIMx));
    TI4_Config(TIMx, TIM_ICInitStruct->TIM_ICPolarity,
 8002c40:	889a      	ldrh	r2, [r3, #4]
               TIM_ICInitStruct->TIM_ICSelection,
               TIM_ICInitStruct->TIM_ICFilter);
 8002c42:	683b      	ldr	r3, [r7, #0]
  }
  else
  {
    /* TI4 Configuration */
    assert_param(IS_TIM_LIST3_PERIPH(TIMx));
    TI4_Config(TIMx, TIM_ICInitStruct->TIM_ICPolarity,
 8002c44:	891b      	ldrh	r3, [r3, #8]
 8002c46:	6878      	ldr	r0, [r7, #4]
 8002c48:	f000 fd60 	bl	800370c <TI4_Config>
               TIM_ICInitStruct->TIM_ICSelection,
               TIM_ICInitStruct->TIM_ICFilter);
    /* Set the Input Capture Prescaler value */
    TIM_SetIC4Prescaler(TIMx, TIM_ICInitStruct->TIM_ICPrescaler);
 8002c4c:	683b      	ldr	r3, [r7, #0]
 8002c4e:	88db      	ldrh	r3, [r3, #6]
 8002c50:	6878      	ldr	r0, [r7, #4]
 8002c52:	4619      	mov	r1, r3
 8002c54:	f000 f90a 	bl	8002e6c <TIM_SetIC4Prescaler>
  }
}
 8002c58:	f107 0708 	add.w	r7, r7, #8
 8002c5c:	46bd      	mov	sp, r7
 8002c5e:	bd80      	pop	{r7, pc}

08002c60 <TIM_ICStructInit>:
  * @param  TIM_ICInitStruct: pointer to a TIM_ICInitTypeDef structure which will
  *         be initialized.
  * @retval None
  */
void TIM_ICStructInit(TIM_ICInitTypeDef* TIM_ICInitStruct)
{
 8002c60:	b480      	push	{r7}
 8002c62:	b083      	sub	sp, #12
 8002c64:	af00      	add	r7, sp, #0
 8002c66:	6078      	str	r0, [r7, #4]
  /* Set the default configuration */
  TIM_ICInitStruct->TIM_Channel = TIM_Channel_1;
 8002c68:	687b      	ldr	r3, [r7, #4]
 8002c6a:	f04f 0200 	mov.w	r2, #0
 8002c6e:	801a      	strh	r2, [r3, #0]
  TIM_ICInitStruct->TIM_ICPolarity = TIM_ICPolarity_Rising;
 8002c70:	687b      	ldr	r3, [r7, #4]
 8002c72:	f04f 0200 	mov.w	r2, #0
 8002c76:	805a      	strh	r2, [r3, #2]
  TIM_ICInitStruct->TIM_ICSelection = TIM_ICSelection_DirectTI;
 8002c78:	687b      	ldr	r3, [r7, #4]
 8002c7a:	f04f 0201 	mov.w	r2, #1
 8002c7e:	809a      	strh	r2, [r3, #4]
  TIM_ICInitStruct->TIM_ICPrescaler = TIM_ICPSC_DIV1;
 8002c80:	687b      	ldr	r3, [r7, #4]
 8002c82:	f04f 0200 	mov.w	r2, #0
 8002c86:	80da      	strh	r2, [r3, #6]
  TIM_ICInitStruct->TIM_ICFilter = 0x00;
 8002c88:	687b      	ldr	r3, [r7, #4]
 8002c8a:	f04f 0200 	mov.w	r2, #0
 8002c8e:	811a      	strh	r2, [r3, #8]
}
 8002c90:	f107 070c 	add.w	r7, r7, #12
 8002c94:	46bd      	mov	sp, r7
 8002c96:	bc80      	pop	{r7}
 8002c98:	4770      	bx	lr
 8002c9a:	bf00      	nop

08002c9c <TIM_PWMIConfig>:
  * @param  TIM_ICInitStruct: pointer to a TIM_ICInitTypeDef structure that contains
  *         the configuration information for the specified TIM peripheral.
  * @retval None
  */
void TIM_PWMIConfig(TIM_TypeDef* TIMx, TIM_ICInitTypeDef* TIM_ICInitStruct)
{
 8002c9c:	b580      	push	{r7, lr}
 8002c9e:	b084      	sub	sp, #16
 8002ca0:	af00      	add	r7, sp, #0
 8002ca2:	6078      	str	r0, [r7, #4]
 8002ca4:	6039      	str	r1, [r7, #0]
  uint16_t icoppositepolarity = TIM_ICPolarity_Rising;
 8002ca6:	f04f 0300 	mov.w	r3, #0
 8002caa:	81fb      	strh	r3, [r7, #14]
  uint16_t icoppositeselection = TIM_ICSelection_DirectTI;
 8002cac:	f04f 0301 	mov.w	r3, #1
 8002cb0:	81bb      	strh	r3, [r7, #12]

  /* Check the parameters */
  assert_param(IS_TIM_LIST2_PERIPH(TIMx));

  /* Select the Opposite Input Polarity */
  if (TIM_ICInitStruct->TIM_ICPolarity == TIM_ICPolarity_Rising)
 8002cb2:	683b      	ldr	r3, [r7, #0]
 8002cb4:	885b      	ldrh	r3, [r3, #2]
 8002cb6:	2b00      	cmp	r3, #0
 8002cb8:	d103      	bne.n	8002cc2 <TIM_PWMIConfig+0x26>
  {
    icoppositepolarity = TIM_ICPolarity_Falling;
 8002cba:	f04f 0302 	mov.w	r3, #2
 8002cbe:	81fb      	strh	r3, [r7, #14]
 8002cc0:	e002      	b.n	8002cc8 <TIM_PWMIConfig+0x2c>
  }
  else
  {
    icoppositepolarity = TIM_ICPolarity_Rising;
 8002cc2:	f04f 0300 	mov.w	r3, #0
 8002cc6:	81fb      	strh	r3, [r7, #14]
  }
  /* Select the Opposite Input */
  if (TIM_ICInitStruct->TIM_ICSelection == TIM_ICSelection_DirectTI)
 8002cc8:	683b      	ldr	r3, [r7, #0]
 8002cca:	889b      	ldrh	r3, [r3, #4]
 8002ccc:	2b01      	cmp	r3, #1
 8002cce:	d103      	bne.n	8002cd8 <TIM_PWMIConfig+0x3c>
  {
    icoppositeselection = TIM_ICSelection_IndirectTI;
 8002cd0:	f04f 0302 	mov.w	r3, #2
 8002cd4:	81bb      	strh	r3, [r7, #12]
 8002cd6:	e002      	b.n	8002cde <TIM_PWMIConfig+0x42>
  }
  else
  {
    icoppositeselection = TIM_ICSelection_DirectTI;
 8002cd8:	f04f 0301 	mov.w	r3, #1
 8002cdc:	81bb      	strh	r3, [r7, #12]
  }
  if (TIM_ICInitStruct->TIM_Channel == TIM_Channel_1)
 8002cde:	683b      	ldr	r3, [r7, #0]
 8002ce0:	881b      	ldrh	r3, [r3, #0]
 8002ce2:	2b00      	cmp	r3, #0
 8002ce4:	d11c      	bne.n	8002d20 <TIM_PWMIConfig+0x84>
  {
    /* TI1 Configuration */
    TI1_Config(TIMx, TIM_ICInitStruct->TIM_ICPolarity, TIM_ICInitStruct->TIM_ICSelection,
 8002ce6:	683b      	ldr	r3, [r7, #0]
 8002ce8:	8859      	ldrh	r1, [r3, #2]
 8002cea:	683b      	ldr	r3, [r7, #0]
 8002cec:	889a      	ldrh	r2, [r3, #4]
               TIM_ICInitStruct->TIM_ICFilter);
 8002cee:	683b      	ldr	r3, [r7, #0]
    icoppositeselection = TIM_ICSelection_DirectTI;
  }
  if (TIM_ICInitStruct->TIM_Channel == TIM_Channel_1)
  {
    /* TI1 Configuration */
    TI1_Config(TIMx, TIM_ICInitStruct->TIM_ICPolarity, TIM_ICInitStruct->TIM_ICSelection,
 8002cf0:	891b      	ldrh	r3, [r3, #8]
 8002cf2:	6878      	ldr	r0, [r7, #4]
 8002cf4:	f000 fc36 	bl	8003564 <TI1_Config>
               TIM_ICInitStruct->TIM_ICFilter);
    /* Set the Input Capture Prescaler value */
    TIM_SetIC1Prescaler(TIMx, TIM_ICInitStruct->TIM_ICPrescaler);
 8002cf8:	683b      	ldr	r3, [r7, #0]
 8002cfa:	88db      	ldrh	r3, [r3, #6]
 8002cfc:	6878      	ldr	r0, [r7, #4]
 8002cfe:	4619      	mov	r1, r3
 8002d00:	f000 f85e 	bl	8002dc0 <TIM_SetIC1Prescaler>
    /* TI2 Configuration */
    TI2_Config(TIMx, icoppositepolarity, icoppositeselection, TIM_ICInitStruct->TIM_ICFilter);
 8002d04:	683b      	ldr	r3, [r7, #0]
 8002d06:	891b      	ldrh	r3, [r3, #8]
 8002d08:	89f9      	ldrh	r1, [r7, #14]
 8002d0a:	89ba      	ldrh	r2, [r7, #12]
 8002d0c:	6878      	ldr	r0, [r7, #4]
 8002d0e:	f000 fc69 	bl	80035e4 <TI2_Config>
    /* Set the Input Capture Prescaler value */
    TIM_SetIC2Prescaler(TIMx, TIM_ICInitStruct->TIM_ICPrescaler);
 8002d12:	683b      	ldr	r3, [r7, #0]
 8002d14:	88db      	ldrh	r3, [r3, #6]
 8002d16:	6878      	ldr	r0, [r7, #4]
 8002d18:	4619      	mov	r1, r3
 8002d1a:	f000 f86d 	bl	8002df8 <TIM_SetIC2Prescaler>
 8002d1e:	e01b      	b.n	8002d58 <TIM_PWMIConfig+0xbc>
  }
  else
  { 
    /* TI2 Configuration */
    TI2_Config(TIMx, TIM_ICInitStruct->TIM_ICPolarity, TIM_ICInitStruct->TIM_ICSelection,
 8002d20:	683b      	ldr	r3, [r7, #0]
 8002d22:	8859      	ldrh	r1, [r3, #2]
 8002d24:	683b      	ldr	r3, [r7, #0]
 8002d26:	889a      	ldrh	r2, [r3, #4]
               TIM_ICInitStruct->TIM_ICFilter);
 8002d28:	683b      	ldr	r3, [r7, #0]
    TIM_SetIC2Prescaler(TIMx, TIM_ICInitStruct->TIM_ICPrescaler);
  }
  else
  { 
    /* TI2 Configuration */
    TI2_Config(TIMx, TIM_ICInitStruct->TIM_ICPolarity, TIM_ICInitStruct->TIM_ICSelection,
 8002d2a:	891b      	ldrh	r3, [r3, #8]
 8002d2c:	6878      	ldr	r0, [r7, #4]
 8002d2e:	f000 fc59 	bl	80035e4 <TI2_Config>
               TIM_ICInitStruct->TIM_ICFilter);
    /* Set the Input Capture Prescaler value */
    TIM_SetIC2Prescaler(TIMx, TIM_ICInitStruct->TIM_ICPrescaler);
 8002d32:	683b      	ldr	r3, [r7, #0]
 8002d34:	88db      	ldrh	r3, [r3, #6]
 8002d36:	6878      	ldr	r0, [r7, #4]
 8002d38:	4619      	mov	r1, r3
 8002d3a:	f000 f85d 	bl	8002df8 <TIM_SetIC2Prescaler>
    /* TI1 Configuration */
    TI1_Config(TIMx, icoppositepolarity, icoppositeselection, TIM_ICInitStruct->TIM_ICFilter);
 8002d3e:	683b      	ldr	r3, [r7, #0]
 8002d40:	891b      	ldrh	r3, [r3, #8]
 8002d42:	89f9      	ldrh	r1, [r7, #14]
 8002d44:	89ba      	ldrh	r2, [r7, #12]
 8002d46:	6878      	ldr	r0, [r7, #4]
 8002d48:	f000 fc0c 	bl	8003564 <TI1_Config>
    /* Set the Input Capture Prescaler value */
    TIM_SetIC1Prescaler(TIMx, TIM_ICInitStruct->TIM_ICPrescaler);
 8002d4c:	683b      	ldr	r3, [r7, #0]
 8002d4e:	88db      	ldrh	r3, [r3, #6]
 8002d50:	6878      	ldr	r0, [r7, #4]
 8002d52:	4619      	mov	r1, r3
 8002d54:	f000 f834 	bl	8002dc0 <TIM_SetIC1Prescaler>
  }
}
 8002d58:	f107 0710 	add.w	r7, r7, #16
 8002d5c:	46bd      	mov	sp, r7
 8002d5e:	bd80      	pop	{r7, pc}

08002d60 <TIM_GetCapture1>:
  * @brief  Gets the TIMx Input Capture 1 value.
  * @param  TIMx: where x can be 1 to 14 except 6 and 7, to select the TIM peripheral.
  * @retval Capture Compare 1 Register value.
  */
uint32_t TIM_GetCapture1(TIM_TypeDef* TIMx)
{
 8002d60:	b480      	push	{r7}
 8002d62:	b083      	sub	sp, #12
 8002d64:	af00      	add	r7, sp, #0
 8002d66:	6078      	str	r0, [r7, #4]
  /* Check the parameters */
  assert_param(IS_TIM_LIST1_PERIPH(TIMx));

  /* Get the Capture 1 Register value */
  return TIMx->CCR1;
 8002d68:	687b      	ldr	r3, [r7, #4]
 8002d6a:	6b5b      	ldr	r3, [r3, #52]	; 0x34
}
 8002d6c:	4618      	mov	r0, r3
 8002d6e:	f107 070c 	add.w	r7, r7, #12
 8002d72:	46bd      	mov	sp, r7
 8002d74:	bc80      	pop	{r7}
 8002d76:	4770      	bx	lr

08002d78 <TIM_GetCapture2>:
  * @param  TIMx: where x can be 1, 2, 3, 4, 5, 8, 9 or 12 to select the TIM 
  *         peripheral.
  * @retval Capture Compare 2 Register value.
  */
uint32_t TIM_GetCapture2(TIM_TypeDef* TIMx)
{
 8002d78:	b480      	push	{r7}
 8002d7a:	b083      	sub	sp, #12
 8002d7c:	af00      	add	r7, sp, #0
 8002d7e:	6078      	str	r0, [r7, #4]
  /* Check the parameters */
  assert_param(IS_TIM_LIST2_PERIPH(TIMx));

  /* Get the Capture 2 Register value */
  return TIMx->CCR2;
 8002d80:	687b      	ldr	r3, [r7, #4]
 8002d82:	6b9b      	ldr	r3, [r3, #56]	; 0x38
}
 8002d84:	4618      	mov	r0, r3
 8002d86:	f107 070c 	add.w	r7, r7, #12
 8002d8a:	46bd      	mov	sp, r7
 8002d8c:	bc80      	pop	{r7}
 8002d8e:	4770      	bx	lr

08002d90 <TIM_GetCapture3>:
  * @brief  Gets the TIMx Input Capture 3 value.
  * @param  TIMx: where x can be 1, 2, 3, 4, 5 or 8 to select the TIM peripheral.
  * @retval Capture Compare 3 Register value.
  */
uint32_t TIM_GetCapture3(TIM_TypeDef* TIMx)
{
 8002d90:	b480      	push	{r7}
 8002d92:	b083      	sub	sp, #12
 8002d94:	af00      	add	r7, sp, #0
 8002d96:	6078      	str	r0, [r7, #4]
  /* Check the parameters */
  assert_param(IS_TIM_LIST3_PERIPH(TIMx)); 

  /* Get the Capture 3 Register value */
  return TIMx->CCR3;
 8002d98:	687b      	ldr	r3, [r7, #4]
 8002d9a:	6bdb      	ldr	r3, [r3, #60]	; 0x3c
}
 8002d9c:	4618      	mov	r0, r3
 8002d9e:	f107 070c 	add.w	r7, r7, #12
 8002da2:	46bd      	mov	sp, r7
 8002da4:	bc80      	pop	{r7}
 8002da6:	4770      	bx	lr

08002da8 <TIM_GetCapture4>:
  * @brief  Gets the TIMx Input Capture 4 value.
  * @param  TIMx: where x can be 1, 2, 3, 4, 5 or 8 to select the TIM peripheral.
  * @retval Capture Compare 4 Register value.
  */
uint32_t TIM_GetCapture4(TIM_TypeDef* TIMx)
{
 8002da8:	b480      	push	{r7}
 8002daa:	b083      	sub	sp, #12
 8002dac:	af00      	add	r7, sp, #0
 8002dae:	6078      	str	r0, [r7, #4]
  /* Check the parameters */
  assert_param(IS_TIM_LIST3_PERIPH(TIMx));

  /* Get the Capture 4 Register value */
  return TIMx->CCR4;
 8002db0:	687b      	ldr	r3, [r7, #4]
 8002db2:	6c1b      	ldr	r3, [r3, #64]	; 0x40
}
 8002db4:	4618      	mov	r0, r3
 8002db6:	f107 070c 	add.w	r7, r7, #12
 8002dba:	46bd      	mov	sp, r7
 8002dbc:	bc80      	pop	{r7}
 8002dbe:	4770      	bx	lr

08002dc0 <TIM_SetIC1Prescaler>:
  *            @arg TIM_ICPSC_DIV4: capture is done once every 4 events
  *            @arg TIM_ICPSC_DIV8: capture is done once every 8 events
  * @retval None
  */
void TIM_SetIC1Prescaler(TIM_TypeDef* TIMx, uint16_t TIM_ICPSC)
{
 8002dc0:	b480      	push	{r7}
 8002dc2:	b083      	sub	sp, #12
 8002dc4:	af00      	add	r7, sp, #0
 8002dc6:	6078      	str	r0, [r7, #4]
 8002dc8:	460b      	mov	r3, r1
 8002dca:	807b      	strh	r3, [r7, #2]
  /* Check the parameters */
  assert_param(IS_TIM_LIST1_PERIPH(TIMx));
  assert_param(IS_TIM_IC_PRESCALER(TIM_ICPSC));

  /* Reset the IC1PSC Bits */
  TIMx->CCMR1 &= (uint16_t)~TIM_CCMR1_IC1PSC;
 8002dcc:	687b      	ldr	r3, [r7, #4]
 8002dce:	8b1b      	ldrh	r3, [r3, #24]
 8002dd0:	b29b      	uxth	r3, r3
 8002dd2:	f023 030c 	bic.w	r3, r3, #12
 8002dd6:	b29a      	uxth	r2, r3
 8002dd8:	687b      	ldr	r3, [r7, #4]
 8002dda:	831a      	strh	r2, [r3, #24]

  /* Set the IC1PSC value */
  TIMx->CCMR1 |= TIM_ICPSC;
 8002ddc:	687b      	ldr	r3, [r7, #4]
 8002dde:	8b1b      	ldrh	r3, [r3, #24]
 8002de0:	b29a      	uxth	r2, r3
 8002de2:	887b      	ldrh	r3, [r7, #2]
 8002de4:	4313      	orrs	r3, r2
 8002de6:	b29a      	uxth	r2, r3
 8002de8:	687b      	ldr	r3, [r7, #4]
 8002dea:	831a      	strh	r2, [r3, #24]
}
 8002dec:	f107 070c 	add.w	r7, r7, #12
 8002df0:	46bd      	mov	sp, r7
 8002df2:	bc80      	pop	{r7}
 8002df4:	4770      	bx	lr
 8002df6:	bf00      	nop

08002df8 <TIM_SetIC2Prescaler>:
  *            @arg TIM_ICPSC_DIV4: capture is done once every 4 events
  *            @arg TIM_ICPSC_DIV8: capture is done once every 8 events
  * @retval None
  */
void TIM_SetIC2Prescaler(TIM_TypeDef* TIMx, uint16_t TIM_ICPSC)
{
 8002df8:	b480      	push	{r7}
 8002dfa:	b083      	sub	sp, #12
 8002dfc:	af00      	add	r7, sp, #0
 8002dfe:	6078      	str	r0, [r7, #4]
 8002e00:	460b      	mov	r3, r1
 8002e02:	807b      	strh	r3, [r7, #2]
  /* Check the parameters */
  assert_param(IS_TIM_LIST2_PERIPH(TIMx));
  assert_param(IS_TIM_IC_PRESCALER(TIM_ICPSC));

  /* Reset the IC2PSC Bits */
  TIMx->CCMR1 &= (uint16_t)~TIM_CCMR1_IC2PSC;
 8002e04:	687b      	ldr	r3, [r7, #4]
 8002e06:	8b1b      	ldrh	r3, [r3, #24]
 8002e08:	b29b      	uxth	r3, r3
 8002e0a:	f423 6340 	bic.w	r3, r3, #3072	; 0xc00
 8002e0e:	b29a      	uxth	r2, r3
 8002e10:	687b      	ldr	r3, [r7, #4]
 8002e12:	831a      	strh	r2, [r3, #24]

  /* Set the IC2PSC value */
  TIMx->CCMR1 |= (uint16_t)(TIM_ICPSC << 8);
 8002e14:	687b      	ldr	r3, [r7, #4]
 8002e16:	8b1b      	ldrh	r3, [r3, #24]
 8002e18:	b29a      	uxth	r2, r3
 8002e1a:	887b      	ldrh	r3, [r7, #2]
 8002e1c:	ea4f 2303 	mov.w	r3, r3, lsl #8
 8002e20:	b29b      	uxth	r3, r3
 8002e22:	4313      	orrs	r3, r2
 8002e24:	b29a      	uxth	r2, r3
 8002e26:	687b      	ldr	r3, [r7, #4]
 8002e28:	831a      	strh	r2, [r3, #24]
}
 8002e2a:	f107 070c 	add.w	r7, r7, #12
 8002e2e:	46bd      	mov	sp, r7
 8002e30:	bc80      	pop	{r7}
 8002e32:	4770      	bx	lr

08002e34 <TIM_SetIC3Prescaler>:
  *            @arg TIM_ICPSC_DIV4: capture is done once every 4 events
  *            @arg TIM_ICPSC_DIV8: capture is done once every 8 events
  * @retval None
  */
void TIM_SetIC3Prescaler(TIM_TypeDef* TIMx, uint16_t TIM_ICPSC)
{
 8002e34:	b480      	push	{r7}
 8002e36:	b083      	sub	sp, #12
 8002e38:	af00      	add	r7, sp, #0
 8002e3a:	6078      	str	r0, [r7, #4]
 8002e3c:	460b      	mov	r3, r1
 8002e3e:	807b      	strh	r3, [r7, #2]
  /* Check the parameters */
  assert_param(IS_TIM_LIST3_PERIPH(TIMx));
  assert_param(IS_TIM_IC_PRESCALER(TIM_ICPSC));

  /* Reset the IC3PSC Bits */
  TIMx->CCMR2 &= (uint16_t)~TIM_CCMR2_IC3PSC;
 8002e40:	687b      	ldr	r3, [r7, #4]
 8002e42:	8b9b      	ldrh	r3, [r3, #28]
 8002e44:	b29b      	uxth	r3, r3
 8002e46:	f023 030c 	bic.w	r3, r3, #12
 8002e4a:	b29a      	uxth	r2, r3
 8002e4c:	687b      	ldr	r3, [r7, #4]
 8002e4e:	839a      	strh	r2, [r3, #28]

  /* Set the IC3PSC value */
  TIMx->CCMR2 |= TIM_ICPSC;
 8002e50:	687b      	ldr	r3, [r7, #4]
 8002e52:	8b9b      	ldrh	r3, [r3, #28]
 8002e54:	b29a      	uxth	r2, r3
 8002e56:	887b      	ldrh	r3, [r7, #2]
 8002e58:	4313      	orrs	r3, r2
 8002e5a:	b29a      	uxth	r2, r3
 8002e5c:	687b      	ldr	r3, [r7, #4]
 8002e5e:	839a      	strh	r2, [r3, #28]
}
 8002e60:	f107 070c 	add.w	r7, r7, #12
 8002e64:	46bd      	mov	sp, r7
 8002e66:	bc80      	pop	{r7}
 8002e68:	4770      	bx	lr
 8002e6a:	bf00      	nop

08002e6c <TIM_SetIC4Prescaler>:
  *            @arg TIM_ICPSC_DIV4: capture is done once every 4 events
  *            @arg TIM_ICPSC_DIV8: capture is done once every 8 events
  * @retval None
  */
void TIM_SetIC4Prescaler(TIM_TypeDef* TIMx, uint16_t TIM_ICPSC)
{  
 8002e6c:	b480      	push	{r7}
 8002e6e:	b083      	sub	sp, #12
 8002e70:	af00      	add	r7, sp, #0
 8002e72:	6078      	str	r0, [r7, #4]
 8002e74:	460b      	mov	r3, r1
 8002e76:	807b      	strh	r3, [r7, #2]
  /* Check the parameters */
  assert_param(IS_TIM_LIST3_PERIPH(TIMx));
  assert_param(IS_TIM_IC_PRESCALER(TIM_ICPSC));

  /* Reset the IC4PSC Bits */
  TIMx->CCMR2 &= (uint16_t)~TIM_CCMR2_IC4PSC;
 8002e78:	687b      	ldr	r3, [r7, #4]
 8002e7a:	8b9b      	ldrh	r3, [r3, #28]
 8002e7c:	b29b      	uxth	r3, r3
 8002e7e:	f423 6340 	bic.w	r3, r3, #3072	; 0xc00
 8002e82:	b29a      	uxth	r2, r3
 8002e84:	687b      	ldr	r3, [r7, #4]
 8002e86:	839a      	strh	r2, [r3, #28]

  /* Set the IC4PSC value */
  TIMx->CCMR2 |= (uint16_t)(TIM_ICPSC << 8);
 8002e88:	687b      	ldr	r3, [r7, #4]
 8002e8a:	8b9b      	ldrh	r3, [r3, #28]
 8002e8c:	b29a      	uxth	r2, r3
 8002e8e:	887b      	ldrh	r3, [r7, #2]
 8002e90:	ea4f 2303 	mov.w	r3, r3, lsl #8
 8002e94:	b29b      	uxth	r3, r3
 8002e96:	4313      	orrs	r3, r2
 8002e98:	b29a      	uxth	r2, r3
 8002e9a:	687b      	ldr	r3, [r7, #4]
 8002e9c:	839a      	strh	r2, [r3, #28]
}
 8002e9e:	f107 070c 	add.w	r7, r7, #12
 8002ea2:	46bd      	mov	sp, r7
 8002ea4:	bc80      	pop	{r7}
 8002ea6:	4770      	bx	lr

08002ea8 <TIM_BDTRConfig>:
  * @param  TIM_BDTRInitStruct: pointer to a TIM_BDTRInitTypeDef structure that
  *         contains the BDTR Register configuration  information for the TIM peripheral.
  * @retval None
  */
void TIM_BDTRConfig(TIM_TypeDef* TIMx, TIM_BDTRInitTypeDef *TIM_BDTRInitStruct)
{
 8002ea8:	b480      	push	{r7}
 8002eaa:	b083      	sub	sp, #12
 8002eac:	af00      	add	r7, sp, #0
 8002eae:	6078      	str	r0, [r7, #4]
 8002eb0:	6039      	str	r1, [r7, #0]
  assert_param(IS_TIM_BREAK_POLARITY(TIM_BDTRInitStruct->TIM_BreakPolarity));
  assert_param(IS_TIM_AUTOMATIC_OUTPUT_STATE(TIM_BDTRInitStruct->TIM_AutomaticOutput));

  /* Set the Lock level, the Break enable Bit and the Polarity, the OSSR State,
     the OSSI State, the dead time value and the Automatic Output Enable Bit */
  TIMx->BDTR = (uint32_t)TIM_BDTRInitStruct->TIM_OSSRState | TIM_BDTRInitStruct->TIM_OSSIState |
 8002eb2:	683b      	ldr	r3, [r7, #0]
 8002eb4:	881a      	ldrh	r2, [r3, #0]
 8002eb6:	683b      	ldr	r3, [r7, #0]
 8002eb8:	885b      	ldrh	r3, [r3, #2]
 8002eba:	4313      	orrs	r3, r2
 8002ebc:	b29a      	uxth	r2, r3
             TIM_BDTRInitStruct->TIM_LOCKLevel | TIM_BDTRInitStruct->TIM_DeadTime |
 8002ebe:	683b      	ldr	r3, [r7, #0]
 8002ec0:	889b      	ldrh	r3, [r3, #4]
  assert_param(IS_TIM_BREAK_POLARITY(TIM_BDTRInitStruct->TIM_BreakPolarity));
  assert_param(IS_TIM_AUTOMATIC_OUTPUT_STATE(TIM_BDTRInitStruct->TIM_AutomaticOutput));

  /* Set the Lock level, the Break enable Bit and the Polarity, the OSSR State,
     the OSSI State, the dead time value and the Automatic Output Enable Bit */
  TIMx->BDTR = (uint32_t)TIM_BDTRInitStruct->TIM_OSSRState | TIM_BDTRInitStruct->TIM_OSSIState |
 8002ec2:	4313      	orrs	r3, r2
 8002ec4:	b29a      	uxth	r2, r3
             TIM_BDTRInitStruct->TIM_LOCKLevel | TIM_BDTRInitStruct->TIM_DeadTime |
 8002ec6:	683b      	ldr	r3, [r7, #0]
 8002ec8:	88db      	ldrh	r3, [r3, #6]
  assert_param(IS_TIM_BREAK_POLARITY(TIM_BDTRInitStruct->TIM_BreakPolarity));
  assert_param(IS_TIM_AUTOMATIC_OUTPUT_STATE(TIM_BDTRInitStruct->TIM_AutomaticOutput));

  /* Set the Lock level, the Break enable Bit and the Polarity, the OSSR State,
     the OSSI State, the dead time value and the Automatic Output Enable Bit */
  TIMx->BDTR = (uint32_t)TIM_BDTRInitStruct->TIM_OSSRState | TIM_BDTRInitStruct->TIM_OSSIState |
 8002eca:	4313      	orrs	r3, r2
 8002ecc:	b29a      	uxth	r2, r3
             TIM_BDTRInitStruct->TIM_LOCKLevel | TIM_BDTRInitStruct->TIM_DeadTime |
             TIM_BDTRInitStruct->TIM_Break | TIM_BDTRInitStruct->TIM_BreakPolarity |
 8002ece:	683b      	ldr	r3, [r7, #0]
 8002ed0:	891b      	ldrh	r3, [r3, #8]
  assert_param(IS_TIM_BREAK_POLARITY(TIM_BDTRInitStruct->TIM_BreakPolarity));
  assert_param(IS_TIM_AUTOMATIC_OUTPUT_STATE(TIM_BDTRInitStruct->TIM_AutomaticOutput));

  /* Set the Lock level, the Break enable Bit and the Polarity, the OSSR State,
     the OSSI State, the dead time value and the Automatic Output Enable Bit */
  TIMx->BDTR = (uint32_t)TIM_BDTRInitStruct->TIM_OSSRState | TIM_BDTRInitStruct->TIM_OSSIState |
 8002ed2:	4313      	orrs	r3, r2
 8002ed4:	b29a      	uxth	r2, r3
             TIM_BDTRInitStruct->TIM_LOCKLevel | TIM_BDTRInitStruct->TIM_DeadTime |
             TIM_BDTRInitStruct->TIM_Break | TIM_BDTRInitStruct->TIM_BreakPolarity |
 8002ed6:	683b      	ldr	r3, [r7, #0]
 8002ed8:	895b      	ldrh	r3, [r3, #10]
  assert_param(IS_TIM_BREAK_POLARITY(TIM_BDTRInitStruct->TIM_BreakPolarity));
  assert_param(IS_TIM_AUTOMATIC_OUTPUT_STATE(TIM_BDTRInitStruct->TIM_AutomaticOutput));

  /* Set the Lock level, the Break enable Bit and the Polarity, the OSSR State,
     the OSSI State, the dead time value and the Automatic Output Enable Bit */
  TIMx->BDTR = (uint32_t)TIM_BDTRInitStruct->TIM_OSSRState | TIM_BDTRInitStruct->TIM_OSSIState |
 8002eda:	4313      	orrs	r3, r2
 8002edc:	b29a      	uxth	r2, r3
             TIM_BDTRInitStruct->TIM_LOCKLevel | TIM_BDTRInitStruct->TIM_DeadTime |
             TIM_BDTRInitStruct->TIM_Break | TIM_BDTRInitStruct->TIM_BreakPolarity |
             TIM_BDTRInitStruct->TIM_AutomaticOutput;
 8002ede:	683b      	ldr	r3, [r7, #0]
 8002ee0:	899b      	ldrh	r3, [r3, #12]
  assert_param(IS_TIM_BREAK_POLARITY(TIM_BDTRInitStruct->TIM_BreakPolarity));
  assert_param(IS_TIM_AUTOMATIC_OUTPUT_STATE(TIM_BDTRInitStruct->TIM_AutomaticOutput));

  /* Set the Lock level, the Break enable Bit and the Polarity, the OSSR State,
     the OSSI State, the dead time value and the Automatic Output Enable Bit */
  TIMx->BDTR = (uint32_t)TIM_BDTRInitStruct->TIM_OSSRState | TIM_BDTRInitStruct->TIM_OSSIState |
 8002ee2:	4313      	orrs	r3, r2
 8002ee4:	b29a      	uxth	r2, r3
 8002ee6:	687b      	ldr	r3, [r7, #4]
 8002ee8:	f8a3 2044 	strh.w	r2, [r3, #68]	; 0x44
             TIM_BDTRInitStruct->TIM_LOCKLevel | TIM_BDTRInitStruct->TIM_DeadTime |
             TIM_BDTRInitStruct->TIM_Break | TIM_BDTRInitStruct->TIM_BreakPolarity |
             TIM_BDTRInitStruct->TIM_AutomaticOutput;
}
 8002eec:	f107 070c 	add.w	r7, r7, #12
 8002ef0:	46bd      	mov	sp, r7
 8002ef2:	bc80      	pop	{r7}
 8002ef4:	4770      	bx	lr
 8002ef6:	bf00      	nop

08002ef8 <TIM_BDTRStructInit>:
  * @param  TIM_BDTRInitStruct: pointer to a TIM_BDTRInitTypeDef structure which
  *         will be initialized.
  * @retval None
  */
void TIM_BDTRStructInit(TIM_BDTRInitTypeDef* TIM_BDTRInitStruct)
{
 8002ef8:	b480      	push	{r7}
 8002efa:	b083      	sub	sp, #12
 8002efc:	af00      	add	r7, sp, #0
 8002efe:	6078      	str	r0, [r7, #4]
  /* Set the default configuration */
  TIM_BDTRInitStruct->TIM_OSSRState = TIM_OSSRState_Disable;
 8002f00:	687b      	ldr	r3, [r7, #4]
 8002f02:	f04f 0200 	mov.w	r2, #0
 8002f06:	801a      	strh	r2, [r3, #0]
  TIM_BDTRInitStruct->TIM_OSSIState = TIM_OSSIState_Disable;
 8002f08:	687b      	ldr	r3, [r7, #4]
 8002f0a:	f04f 0200 	mov.w	r2, #0
 8002f0e:	805a      	strh	r2, [r3, #2]
  TIM_BDTRInitStruct->TIM_LOCKLevel = TIM_LOCKLevel_OFF;
 8002f10:	687b      	ldr	r3, [r7, #4]
 8002f12:	f04f 0200 	mov.w	r2, #0
 8002f16:	809a      	strh	r2, [r3, #4]
  TIM_BDTRInitStruct->TIM_DeadTime = 0x00;
 8002f18:	687b      	ldr	r3, [r7, #4]
 8002f1a:	f04f 0200 	mov.w	r2, #0
 8002f1e:	80da      	strh	r2, [r3, #6]
  TIM_BDTRInitStruct->TIM_Break = TIM_Break_Disable;
 8002f20:	687b      	ldr	r3, [r7, #4]
 8002f22:	f04f 0200 	mov.w	r2, #0
 8002f26:	811a      	strh	r2, [r3, #8]
  TIM_BDTRInitStruct->TIM_BreakPolarity = TIM_BreakPolarity_Low;
 8002f28:	687b      	ldr	r3, [r7, #4]
 8002f2a:	f04f 0200 	mov.w	r2, #0
 8002f2e:	815a      	strh	r2, [r3, #10]
  TIM_BDTRInitStruct->TIM_AutomaticOutput = TIM_AutomaticOutput_Disable;
 8002f30:	687b      	ldr	r3, [r7, #4]
 8002f32:	f04f 0200 	mov.w	r2, #0
 8002f36:	819a      	strh	r2, [r3, #12]
}
 8002f38:	f107 070c 	add.w	r7, r7, #12
 8002f3c:	46bd      	mov	sp, r7
 8002f3e:	bc80      	pop	{r7}
 8002f40:	4770      	bx	lr
 8002f42:	bf00      	nop

08002f44 <TIM_CtrlPWMOutputs>:
  * @param  NewState: new state of the TIM peripheral Main Outputs.
  *          This parameter can be: ENABLE or DISABLE.
  * @retval None
  */
void TIM_CtrlPWMOutputs(TIM_TypeDef* TIMx, FunctionalState NewState)
{
 8002f44:	b480      	push	{r7}
 8002f46:	b083      	sub	sp, #12
 8002f48:	af00      	add	r7, sp, #0
 8002f4a:	6078      	str	r0, [r7, #4]
 8002f4c:	460b      	mov	r3, r1
 8002f4e:	70fb      	strb	r3, [r7, #3]
  /* Check the parameters */
  assert_param(IS_TIM_LIST4_PERIPH(TIMx));
  assert_param(IS_FUNCTIONAL_STATE(NewState));

  if (NewState != DISABLE)
 8002f50:	78fb      	ldrb	r3, [r7, #3]
 8002f52:	2b00      	cmp	r3, #0
 8002f54:	d00c      	beq.n	8002f70 <TIM_CtrlPWMOutputs+0x2c>
  {
    /* Enable the TIM Main Output */
    TIMx->BDTR |= TIM_BDTR_MOE;
 8002f56:	687b      	ldr	r3, [r7, #4]
 8002f58:	f8b3 3044 	ldrh.w	r3, [r3, #68]	; 0x44
 8002f5c:	b29b      	uxth	r3, r3
 8002f5e:	ea6f 4343 	mvn.w	r3, r3, lsl #17
 8002f62:	ea6f 4353 	mvn.w	r3, r3, lsr #17
 8002f66:	b29a      	uxth	r2, r3
 8002f68:	687b      	ldr	r3, [r7, #4]
 8002f6a:	f8a3 2044 	strh.w	r2, [r3, #68]	; 0x44
 8002f6e:	e00b      	b.n	8002f88 <TIM_CtrlPWMOutputs+0x44>
  }
  else
  {
    /* Disable the TIM Main Output */
    TIMx->BDTR &= (uint16_t)~TIM_BDTR_MOE;
 8002f70:	687b      	ldr	r3, [r7, #4]
 8002f72:	f8b3 3044 	ldrh.w	r3, [r3, #68]	; 0x44
 8002f76:	b29b      	uxth	r3, r3
 8002f78:	ea4f 4343 	mov.w	r3, r3, lsl #17
 8002f7c:	ea4f 4353 	mov.w	r3, r3, lsr #17
 8002f80:	b29a      	uxth	r2, r3
 8002f82:	687b      	ldr	r3, [r7, #4]
 8002f84:	f8a3 2044 	strh.w	r2, [r3, #68]	; 0x44
  }  
}
 8002f88:	f107 070c 	add.w	r7, r7, #12
 8002f8c:	46bd      	mov	sp, r7
 8002f8e:	bc80      	pop	{r7}
 8002f90:	4770      	bx	lr
 8002f92:	bf00      	nop

08002f94 <TIM_SelectCOM>:
  * @param  NewState: new state of the Commutation event.
  *          This parameter can be: ENABLE or DISABLE.
  * @retval None
  */
void TIM_SelectCOM(TIM_TypeDef* TIMx, FunctionalState NewState)
{
 8002f94:	b480      	push	{r7}
 8002f96:	b083      	sub	sp, #12
 8002f98:	af00      	add	r7, sp, #0
 8002f9a:	6078      	str	r0, [r7, #4]
 8002f9c:	460b      	mov	r3, r1
 8002f9e:	70fb      	strb	r3, [r7, #3]
  /* Check the parameters */
  assert_param(IS_TIM_LIST4_PERIPH(TIMx));
  assert_param(IS_FUNCTIONAL_STATE(NewState));

  if (NewState != DISABLE)
 8002fa0:	78fb      	ldrb	r3, [r7, #3]
 8002fa2:	2b00      	cmp	r3, #0
 8002fa4:	d008      	beq.n	8002fb8 <TIM_SelectCOM+0x24>
  {
    /* Set the COM Bit */
    TIMx->CR2 |= TIM_CR2_CCUS;
 8002fa6:	687b      	ldr	r3, [r7, #4]
 8002fa8:	889b      	ldrh	r3, [r3, #4]
 8002faa:	b29b      	uxth	r3, r3
 8002fac:	f043 0304 	orr.w	r3, r3, #4
 8002fb0:	b29a      	uxth	r2, r3
 8002fb2:	687b      	ldr	r3, [r7, #4]
 8002fb4:	809a      	strh	r2, [r3, #4]
 8002fb6:	e007      	b.n	8002fc8 <TIM_SelectCOM+0x34>
  }
  else
  {
    /* Reset the COM Bit */
    TIMx->CR2 &= (uint16_t)~TIM_CR2_CCUS;
 8002fb8:	687b      	ldr	r3, [r7, #4]
 8002fba:	889b      	ldrh	r3, [r3, #4]
 8002fbc:	b29b      	uxth	r3, r3
 8002fbe:	f023 0304 	bic.w	r3, r3, #4
 8002fc2:	b29a      	uxth	r2, r3
 8002fc4:	687b      	ldr	r3, [r7, #4]
 8002fc6:	809a      	strh	r2, [r3, #4]
  }
}
 8002fc8:	f107 070c 	add.w	r7, r7, #12
 8002fcc:	46bd      	mov	sp, r7
 8002fce:	bc80      	pop	{r7}
 8002fd0:	4770      	bx	lr
 8002fd2:	bf00      	nop

08002fd4 <TIM_CCPreloadControl>:
  * @param  NewState: new state of the Capture Compare Preload Control bit
  *          This parameter can be: ENABLE or DISABLE.
  * @retval None
  */
void TIM_CCPreloadControl(TIM_TypeDef* TIMx, FunctionalState NewState)
{ 
 8002fd4:	b480      	push	{r7}
 8002fd6:	b083      	sub	sp, #12
 8002fd8:	af00      	add	r7, sp, #0
 8002fda:	6078      	str	r0, [r7, #4]
 8002fdc:	460b      	mov	r3, r1
 8002fde:	70fb      	strb	r3, [r7, #3]
  /* Check the parameters */
  assert_param(IS_TIM_LIST4_PERIPH(TIMx));
  assert_param(IS_FUNCTIONAL_STATE(NewState));
  if (NewState != DISABLE)
 8002fe0:	78fb      	ldrb	r3, [r7, #3]
 8002fe2:	2b00      	cmp	r3, #0
 8002fe4:	d008      	beq.n	8002ff8 <TIM_CCPreloadControl+0x24>
  {
    /* Set the CCPC Bit */
    TIMx->CR2 |= TIM_CR2_CCPC;
 8002fe6:	687b      	ldr	r3, [r7, #4]
 8002fe8:	889b      	ldrh	r3, [r3, #4]
 8002fea:	b29b      	uxth	r3, r3
 8002fec:	f043 0301 	orr.w	r3, r3, #1
 8002ff0:	b29a      	uxth	r2, r3
 8002ff2:	687b      	ldr	r3, [r7, #4]
 8002ff4:	809a      	strh	r2, [r3, #4]
 8002ff6:	e007      	b.n	8003008 <TIM_CCPreloadControl+0x34>
  }
  else
  {
    /* Reset the CCPC Bit */
    TIMx->CR2 &= (uint16_t)~TIM_CR2_CCPC;
 8002ff8:	687b      	ldr	r3, [r7, #4]
 8002ffa:	889b      	ldrh	r3, [r3, #4]
 8002ffc:	b29b      	uxth	r3, r3
 8002ffe:	f023 0301 	bic.w	r3, r3, #1
 8003002:	b29a      	uxth	r2, r3
 8003004:	687b      	ldr	r3, [r7, #4]
 8003006:	809a      	strh	r2, [r3, #4]
  }
}
 8003008:	f107 070c 	add.w	r7, r7, #12
 800300c:	46bd      	mov	sp, r7
 800300e:	bc80      	pop	{r7}
 8003010:	4770      	bx	lr
 8003012:	bf00      	nop

08003014 <TIM_ITConfig>:
  * @param  NewState: new state of the TIM interrupts.
  *          This parameter can be: ENABLE or DISABLE.
  * @retval None
  */
void TIM_ITConfig(TIM_TypeDef* TIMx, uint16_t TIM_IT, FunctionalState NewState)
{  
 8003014:	b480      	push	{r7}
 8003016:	b083      	sub	sp, #12
 8003018:	af00      	add	r7, sp, #0
 800301a:	6078      	str	r0, [r7, #4]
 800301c:	4613      	mov	r3, r2
 800301e:	460a      	mov	r2, r1
 8003020:	807a      	strh	r2, [r7, #2]
 8003022:	707b      	strb	r3, [r7, #1]
  /* Check the parameters */
  assert_param(IS_TIM_ALL_PERIPH(TIMx));
  assert_param(IS_TIM_IT(TIM_IT));
  assert_param(IS_FUNCTIONAL_STATE(NewState));
  
  if (NewState != DISABLE)
 8003024:	787b      	ldrb	r3, [r7, #1]
 8003026:	2b00      	cmp	r3, #0
 8003028:	d008      	beq.n	800303c <TIM_ITConfig+0x28>
  {
    /* Enable the Interrupt sources */
    TIMx->DIER |= TIM_IT;
 800302a:	687b      	ldr	r3, [r7, #4]
 800302c:	899b      	ldrh	r3, [r3, #12]
 800302e:	b29a      	uxth	r2, r3
 8003030:	887b      	ldrh	r3, [r7, #2]
 8003032:	4313      	orrs	r3, r2
 8003034:	b29a      	uxth	r2, r3
 8003036:	687b      	ldr	r3, [r7, #4]
 8003038:	819a      	strh	r2, [r3, #12]
 800303a:	e00a      	b.n	8003052 <TIM_ITConfig+0x3e>
  }
  else
  {
    /* Disable the Interrupt sources */
    TIMx->DIER &= (uint16_t)~TIM_IT;
 800303c:	687b      	ldr	r3, [r7, #4]
 800303e:	899b      	ldrh	r3, [r3, #12]
 8003040:	b29a      	uxth	r2, r3
 8003042:	887b      	ldrh	r3, [r7, #2]
 8003044:	ea6f 0303 	mvn.w	r3, r3
 8003048:	b29b      	uxth	r3, r3
 800304a:	4013      	ands	r3, r2
 800304c:	b29a      	uxth	r2, r3
 800304e:	687b      	ldr	r3, [r7, #4]
 8003050:	819a      	strh	r2, [r3, #12]
  }
}
 8003052:	f107 070c 	add.w	r7, r7, #12
 8003056:	46bd      	mov	sp, r7
 8003058:	bc80      	pop	{r7}
 800305a:	4770      	bx	lr

0800305c <TIM_GenerateEvent>:
  * @note   TIM_EventSource_COM and TIM_EventSource_Break are used only with TIM1 and TIM8.
  *        
  * @retval None
  */
void TIM_GenerateEvent(TIM_TypeDef* TIMx, uint16_t TIM_EventSource)
{ 
 800305c:	b480      	push	{r7}
 800305e:	b083      	sub	sp, #12
 8003060:	af00      	add	r7, sp, #0
 8003062:	6078      	str	r0, [r7, #4]
 8003064:	460b      	mov	r3, r1
 8003066:	807b      	strh	r3, [r7, #2]
  /* Check the parameters */
  assert_param(IS_TIM_ALL_PERIPH(TIMx));
  assert_param(IS_TIM_EVENT_SOURCE(TIM_EventSource));
 
  /* Set the event sources */
  TIMx->EGR = TIM_EventSource;
 8003068:	687b      	ldr	r3, [r7, #4]
 800306a:	887a      	ldrh	r2, [r7, #2]
 800306c:	829a      	strh	r2, [r3, #20]
}
 800306e:	f107 070c 	add.w	r7, r7, #12
 8003072:	46bd      	mov	sp, r7
 8003074:	bc80      	pop	{r7}
 8003076:	4770      	bx	lr

08003078 <TIM_GetFlagStatus>:
  * @note   TIM_FLAG_COM and TIM_FLAG_Break are used only with TIM1 and TIM8.    
  *
  * @retval The new state of TIM_FLAG (SET or RESET).
  */
FlagStatus TIM_GetFlagStatus(TIM_TypeDef* TIMx, uint16_t TIM_FLAG)
{ 
 8003078:	b480      	push	{r7}
 800307a:	b085      	sub	sp, #20
 800307c:	af00      	add	r7, sp, #0
 800307e:	6078      	str	r0, [r7, #4]
 8003080:	460b      	mov	r3, r1
 8003082:	807b      	strh	r3, [r7, #2]
  ITStatus bitstatus = RESET;  
 8003084:	f04f 0300 	mov.w	r3, #0
 8003088:	73fb      	strb	r3, [r7, #15]
  /* Check the parameters */
  assert_param(IS_TIM_ALL_PERIPH(TIMx));
  assert_param(IS_TIM_GET_FLAG(TIM_FLAG));

  
  if ((TIMx->SR & TIM_FLAG) != (uint16_t)RESET)
 800308a:	687b      	ldr	r3, [r7, #4]
 800308c:	8a1b      	ldrh	r3, [r3, #16]
 800308e:	b29a      	uxth	r2, r3
 8003090:	887b      	ldrh	r3, [r7, #2]
 8003092:	4013      	ands	r3, r2
 8003094:	b29b      	uxth	r3, r3
 8003096:	2b00      	cmp	r3, #0
 8003098:	d003      	beq.n	80030a2 <TIM_GetFlagStatus+0x2a>
  {
    bitstatus = SET;
 800309a:	f04f 0301 	mov.w	r3, #1
 800309e:	73fb      	strb	r3, [r7, #15]
 80030a0:	e002      	b.n	80030a8 <TIM_GetFlagStatus+0x30>
  }
  else
  {
    bitstatus = RESET;
 80030a2:	f04f 0300 	mov.w	r3, #0
 80030a6:	73fb      	strb	r3, [r7, #15]
  }
  return bitstatus;
 80030a8:	7bfb      	ldrb	r3, [r7, #15]
}
 80030aa:	4618      	mov	r0, r3
 80030ac:	f107 0714 	add.w	r7, r7, #20
 80030b0:	46bd      	mov	sp, r7
 80030b2:	bc80      	pop	{r7}
 80030b4:	4770      	bx	lr
 80030b6:	bf00      	nop

080030b8 <TIM_ClearFlag>:
  * @note   TIM_FLAG_COM and TIM_FLAG_Break are used only with TIM1 and TIM8.
  *    
  * @retval None
  */
void TIM_ClearFlag(TIM_TypeDef* TIMx, uint16_t TIM_FLAG)
{  
 80030b8:	b480      	push	{r7}
 80030ba:	b083      	sub	sp, #12
 80030bc:	af00      	add	r7, sp, #0
 80030be:	6078      	str	r0, [r7, #4]
 80030c0:	460b      	mov	r3, r1
 80030c2:	807b      	strh	r3, [r7, #2]
  /* Check the parameters */
  assert_param(IS_TIM_ALL_PERIPH(TIMx));
   
  /* Clear the flags */
  TIMx->SR = (uint16_t)~TIM_FLAG;
 80030c4:	887b      	ldrh	r3, [r7, #2]
 80030c6:	ea6f 0303 	mvn.w	r3, r3
 80030ca:	b29a      	uxth	r2, r3
 80030cc:	687b      	ldr	r3, [r7, #4]
 80030ce:	821a      	strh	r2, [r3, #16]
}
 80030d0:	f107 070c 	add.w	r7, r7, #12
 80030d4:	46bd      	mov	sp, r7
 80030d6:	bc80      	pop	{r7}
 80030d8:	4770      	bx	lr
 80030da:	bf00      	nop

080030dc <TIM_GetITStatus>:
  * @note   TIM_IT_COM and TIM_IT_Break are used only with TIM1 and TIM8.
  *     
  * @retval The new state of the TIM_IT(SET or RESET).
  */
ITStatus TIM_GetITStatus(TIM_TypeDef* TIMx, uint16_t TIM_IT)
{
 80030dc:	b480      	push	{r7}
 80030de:	b085      	sub	sp, #20
 80030e0:	af00      	add	r7, sp, #0
 80030e2:	6078      	str	r0, [r7, #4]
 80030e4:	460b      	mov	r3, r1
 80030e6:	807b      	strh	r3, [r7, #2]
  ITStatus bitstatus = RESET;  
 80030e8:	f04f 0300 	mov.w	r3, #0
 80030ec:	73fb      	strb	r3, [r7, #15]
  uint16_t itstatus = 0x0, itenable = 0x0;
 80030ee:	f04f 0300 	mov.w	r3, #0
 80030f2:	81bb      	strh	r3, [r7, #12]
 80030f4:	f04f 0300 	mov.w	r3, #0
 80030f8:	817b      	strh	r3, [r7, #10]
  /* Check the parameters */
  assert_param(IS_TIM_ALL_PERIPH(TIMx));
  assert_param(IS_TIM_GET_IT(TIM_IT));
   
  itstatus = TIMx->SR & TIM_IT;
 80030fa:	687b      	ldr	r3, [r7, #4]
 80030fc:	8a1b      	ldrh	r3, [r3, #16]
 80030fe:	b29a      	uxth	r2, r3
 8003100:	887b      	ldrh	r3, [r7, #2]
 8003102:	4013      	ands	r3, r2
 8003104:	81bb      	strh	r3, [r7, #12]
  
  itenable = TIMx->DIER & TIM_IT;
 8003106:	687b      	ldr	r3, [r7, #4]
 8003108:	899b      	ldrh	r3, [r3, #12]
 800310a:	b29a      	uxth	r2, r3
 800310c:	887b      	ldrh	r3, [r7, #2]
 800310e:	4013      	ands	r3, r2
 8003110:	817b      	strh	r3, [r7, #10]
  if ((itstatus != (uint16_t)RESET) && (itenable != (uint16_t)RESET))
 8003112:	89bb      	ldrh	r3, [r7, #12]
 8003114:	2b00      	cmp	r3, #0
 8003116:	d006      	beq.n	8003126 <TIM_GetITStatus+0x4a>
 8003118:	897b      	ldrh	r3, [r7, #10]
 800311a:	2b00      	cmp	r3, #0
 800311c:	d003      	beq.n	8003126 <TIM_GetITStatus+0x4a>
  {
    bitstatus = SET;
 800311e:	f04f 0301 	mov.w	r3, #1
 8003122:	73fb      	strb	r3, [r7, #15]
 8003124:	e002      	b.n	800312c <TIM_GetITStatus+0x50>
  }
  else
  {
    bitstatus = RESET;
 8003126:	f04f 0300 	mov.w	r3, #0
 800312a:	73fb      	strb	r3, [r7, #15]
  }
  return bitstatus;
 800312c:	7bfb      	ldrb	r3, [r7, #15]
}
 800312e:	4618      	mov	r0, r3
 8003130:	f107 0714 	add.w	r7, r7, #20
 8003134:	46bd      	mov	sp, r7
 8003136:	bc80      	pop	{r7}
 8003138:	4770      	bx	lr
 800313a:	bf00      	nop

0800313c <TIM_ClearITPendingBit>:
  * @note   TIM_IT_COM and TIM_IT_Break are used only with TIM1 and TIM8.
  *      
  * @retval None
  */
void TIM_ClearITPendingBit(TIM_TypeDef* TIMx, uint16_t TIM_IT)
{
 800313c:	b480      	push	{r7}
 800313e:	b083      	sub	sp, #12
 8003140:	af00      	add	r7, sp, #0
 8003142:	6078      	str	r0, [r7, #4]
 8003144:	460b      	mov	r3, r1
 8003146:	807b      	strh	r3, [r7, #2]
  /* Check the parameters */
  assert_param(IS_TIM_ALL_PERIPH(TIMx));

  /* Clear the IT pending Bit */
  TIMx->SR = (uint16_t)~TIM_IT;
 8003148:	887b      	ldrh	r3, [r7, #2]
 800314a:	ea6f 0303 	mvn.w	r3, r3
 800314e:	b29a      	uxth	r2, r3
 8003150:	687b      	ldr	r3, [r7, #4]
 8003152:	821a      	strh	r2, [r3, #16]
}
 8003154:	f107 070c 	add.w	r7, r7, #12
 8003158:	46bd      	mov	sp, r7
 800315a:	bc80      	pop	{r7}
 800315c:	4770      	bx	lr
 800315e:	bf00      	nop

08003160 <TIM_DMAConfig>:
  * @param  TIM_DMABurstLength: DMA Burst length. This parameter can be one value
  *         between: TIM_DMABurstLength_1Transfer and TIM_DMABurstLength_18Transfers.
  * @retval None
  */
void TIM_DMAConfig(TIM_TypeDef* TIMx, uint16_t TIM_DMABase, uint16_t TIM_DMABurstLength)
{
 8003160:	b480      	push	{r7}
 8003162:	b083      	sub	sp, #12
 8003164:	af00      	add	r7, sp, #0
 8003166:	6078      	str	r0, [r7, #4]
 8003168:	4613      	mov	r3, r2
 800316a:	460a      	mov	r2, r1
 800316c:	807a      	strh	r2, [r7, #2]
 800316e:	803b      	strh	r3, [r7, #0]
  assert_param(IS_TIM_LIST3_PERIPH(TIMx));
  assert_param(IS_TIM_DMA_BASE(TIM_DMABase)); 
  assert_param(IS_TIM_DMA_LENGTH(TIM_DMABurstLength));

  /* Set the DMA Base and the DMA Burst Length */
  TIMx->DCR = TIM_DMABase | TIM_DMABurstLength;
 8003170:	887a      	ldrh	r2, [r7, #2]
 8003172:	883b      	ldrh	r3, [r7, #0]
 8003174:	4313      	orrs	r3, r2
 8003176:	b29a      	uxth	r2, r3
 8003178:	687b      	ldr	r3, [r7, #4]
 800317a:	f8a3 2048 	strh.w	r2, [r3, #72]	; 0x48
}
 800317e:	f107 070c 	add.w	r7, r7, #12
 8003182:	46bd      	mov	sp, r7
 8003184:	bc80      	pop	{r7}
 8003186:	4770      	bx	lr

08003188 <TIM_DMACmd>:
  * @param  NewState: new state of the DMA Request sources.
  *          This parameter can be: ENABLE or DISABLE.
  * @retval None
  */
void TIM_DMACmd(TIM_TypeDef* TIMx, uint16_t TIM_DMASource, FunctionalState NewState)
{ 
 8003188:	b480      	push	{r7}
 800318a:	b083      	sub	sp, #12
 800318c:	af00      	add	r7, sp, #0
 800318e:	6078      	str	r0, [r7, #4]
 8003190:	4613      	mov	r3, r2
 8003192:	460a      	mov	r2, r1
 8003194:	807a      	strh	r2, [r7, #2]
 8003196:	707b      	strb	r3, [r7, #1]
  /* Check the parameters */
  assert_param(IS_TIM_LIST5_PERIPH(TIMx)); 
  assert_param(IS_TIM_DMA_SOURCE(TIM_DMASource));
  assert_param(IS_FUNCTIONAL_STATE(NewState));
  
  if (NewState != DISABLE)
 8003198:	787b      	ldrb	r3, [r7, #1]
 800319a:	2b00      	cmp	r3, #0
 800319c:	d008      	beq.n	80031b0 <TIM_DMACmd+0x28>
  {
    /* Enable the DMA sources */
    TIMx->DIER |= TIM_DMASource; 
 800319e:	687b      	ldr	r3, [r7, #4]
 80031a0:	899b      	ldrh	r3, [r3, #12]
 80031a2:	b29a      	uxth	r2, r3
 80031a4:	887b      	ldrh	r3, [r7, #2]
 80031a6:	4313      	orrs	r3, r2
 80031a8:	b29a      	uxth	r2, r3
 80031aa:	687b      	ldr	r3, [r7, #4]
 80031ac:	819a      	strh	r2, [r3, #12]
 80031ae:	e00a      	b.n	80031c6 <TIM_DMACmd+0x3e>
  }
  else
  {
    /* Disable the DMA sources */
    TIMx->DIER &= (uint16_t)~TIM_DMASource;
 80031b0:	687b      	ldr	r3, [r7, #4]
 80031b2:	899b      	ldrh	r3, [r3, #12]
 80031b4:	b29a      	uxth	r2, r3
 80031b6:	887b      	ldrh	r3, [r7, #2]
 80031b8:	ea6f 0303 	mvn.w	r3, r3
 80031bc:	b29b      	uxth	r3, r3
 80031be:	4013      	ands	r3, r2
 80031c0:	b29a      	uxth	r2, r3
 80031c2:	687b      	ldr	r3, [r7, #4]
 80031c4:	819a      	strh	r2, [r3, #12]
  }
}
 80031c6:	f107 070c 	add.w	r7, r7, #12
 80031ca:	46bd      	mov	sp, r7
 80031cc:	bc80      	pop	{r7}
 80031ce:	4770      	bx	lr

080031d0 <TIM_SelectCCDMA>:
  * @param  NewState: new state of the Capture Compare DMA source
  *          This parameter can be: ENABLE or DISABLE.
  * @retval None
  */
void TIM_SelectCCDMA(TIM_TypeDef* TIMx, FunctionalState NewState)
{
 80031d0:	b480      	push	{r7}
 80031d2:	b083      	sub	sp, #12
 80031d4:	af00      	add	r7, sp, #0
 80031d6:	6078      	str	r0, [r7, #4]
 80031d8:	460b      	mov	r3, r1
 80031da:	70fb      	strb	r3, [r7, #3]
  /* Check the parameters */
  assert_param(IS_TIM_LIST3_PERIPH(TIMx));
  assert_param(IS_FUNCTIONAL_STATE(NewState));

  if (NewState != DISABLE)
 80031dc:	78fb      	ldrb	r3, [r7, #3]
 80031de:	2b00      	cmp	r3, #0
 80031e0:	d008      	beq.n	80031f4 <TIM_SelectCCDMA+0x24>
  {
    /* Set the CCDS Bit */
    TIMx->CR2 |= TIM_CR2_CCDS;
 80031e2:	687b      	ldr	r3, [r7, #4]
 80031e4:	889b      	ldrh	r3, [r3, #4]
 80031e6:	b29b      	uxth	r3, r3
 80031e8:	f043 0308 	orr.w	r3, r3, #8
 80031ec:	b29a      	uxth	r2, r3
 80031ee:	687b      	ldr	r3, [r7, #4]
 80031f0:	809a      	strh	r2, [r3, #4]
 80031f2:	e007      	b.n	8003204 <TIM_SelectCCDMA+0x34>
  }
  else
  {
    /* Reset the CCDS Bit */
    TIMx->CR2 &= (uint16_t)~TIM_CR2_CCDS;
 80031f4:	687b      	ldr	r3, [r7, #4]
 80031f6:	889b      	ldrh	r3, [r3, #4]
 80031f8:	b29b      	uxth	r3, r3
 80031fa:	f023 0308 	bic.w	r3, r3, #8
 80031fe:	b29a      	uxth	r2, r3
 8003200:	687b      	ldr	r3, [r7, #4]
 8003202:	809a      	strh	r2, [r3, #4]
  }
}
 8003204:	f107 070c 	add.w	r7, r7, #12
 8003208:	46bd      	mov	sp, r7
 800320a:	bc80      	pop	{r7}
 800320c:	4770      	bx	lr
 800320e:	bf00      	nop

08003210 <TIM_InternalClockConfig>:
  * @param  TIMx: where x can be 1, 2, 3, 4, 5, 8, 9 or 12 to select the TIM 
  *         peripheral.
  * @retval None
  */
void TIM_InternalClockConfig(TIM_TypeDef* TIMx)
{
 8003210:	b480      	push	{r7}
 8003212:	b083      	sub	sp, #12
 8003214:	af00      	add	r7, sp, #0
 8003216:	6078      	str	r0, [r7, #4]
  /* Check the parameters */
  assert_param(IS_TIM_LIST2_PERIPH(TIMx));

  /* Disable slave mode to clock the prescaler directly with the internal clock */
  TIMx->SMCR &=  (uint16_t)~TIM_SMCR_SMS;
 8003218:	687b      	ldr	r3, [r7, #4]
 800321a:	891b      	ldrh	r3, [r3, #8]
 800321c:	b29b      	uxth	r3, r3
 800321e:	f023 0307 	bic.w	r3, r3, #7
 8003222:	b29a      	uxth	r2, r3
 8003224:	687b      	ldr	r3, [r7, #4]
 8003226:	811a      	strh	r2, [r3, #8]
}
 8003228:	f107 070c 	add.w	r7, r7, #12
 800322c:	46bd      	mov	sp, r7
 800322e:	bc80      	pop	{r7}
 8003230:	4770      	bx	lr
 8003232:	bf00      	nop

08003234 <TIM_ITRxExternalClockConfig>:
  *            @arg TIM_TS_ITR2: Internal Trigger 2
  *            @arg TIM_TS_ITR3: Internal Trigger 3
  * @retval None
  */
void TIM_ITRxExternalClockConfig(TIM_TypeDef* TIMx, uint16_t TIM_InputTriggerSource)
{
 8003234:	b580      	push	{r7, lr}
 8003236:	b082      	sub	sp, #8
 8003238:	af00      	add	r7, sp, #0
 800323a:	6078      	str	r0, [r7, #4]
 800323c:	460b      	mov	r3, r1
 800323e:	807b      	strh	r3, [r7, #2]
  /* Check the parameters */
  assert_param(IS_TIM_LIST2_PERIPH(TIMx));
  assert_param(IS_TIM_INTERNAL_TRIGGER_SELECTION(TIM_InputTriggerSource));

  /* Select the Internal Trigger */
  TIM_SelectInputTrigger(TIMx, TIM_InputTriggerSource);
 8003240:	887b      	ldrh	r3, [r7, #2]
 8003242:	6878      	ldr	r0, [r7, #4]
 8003244:	4619      	mov	r1, r3
 8003246:	f000 f87d 	bl	8003344 <TIM_SelectInputTrigger>

  /* Select the External clock mode1 */
  TIMx->SMCR |= TIM_SlaveMode_External1;
 800324a:	687b      	ldr	r3, [r7, #4]
 800324c:	891b      	ldrh	r3, [r3, #8]
 800324e:	b29b      	uxth	r3, r3
 8003250:	f043 0307 	orr.w	r3, r3, #7
 8003254:	b29a      	uxth	r2, r3
 8003256:	687b      	ldr	r3, [r7, #4]
 8003258:	811a      	strh	r2, [r3, #8]
}
 800325a:	f107 0708 	add.w	r7, r7, #8
 800325e:	46bd      	mov	sp, r7
 8003260:	bd80      	pop	{r7, pc}
 8003262:	bf00      	nop

08003264 <TIM_TIxExternalClockConfig>:
  *          This parameter must be a value between 0x0 and 0xF.
  * @retval None
  */
void TIM_TIxExternalClockConfig(TIM_TypeDef* TIMx, uint16_t TIM_TIxExternalCLKSource,
                                uint16_t TIM_ICPolarity, uint16_t ICFilter)
{
 8003264:	b580      	push	{r7, lr}
 8003266:	b084      	sub	sp, #16
 8003268:	af00      	add	r7, sp, #0
 800326a:	60f8      	str	r0, [r7, #12]
 800326c:	8179      	strh	r1, [r7, #10]
 800326e:	813a      	strh	r2, [r7, #8]
 8003270:	80fb      	strh	r3, [r7, #6]
  assert_param(IS_TIM_LIST1_PERIPH(TIMx));
  assert_param(IS_TIM_IC_POLARITY(TIM_ICPolarity));
  assert_param(IS_TIM_IC_FILTER(ICFilter));

  /* Configure the Timer Input Clock Source */
  if (TIM_TIxExternalCLKSource == TIM_TIxExternalCLK1Source_TI2)
 8003272:	897b      	ldrh	r3, [r7, #10]
 8003274:	2b60      	cmp	r3, #96	; 0x60
 8003276:	d108      	bne.n	800328a <TIM_TIxExternalClockConfig+0x26>
  {
    TI2_Config(TIMx, TIM_ICPolarity, TIM_ICSelection_DirectTI, ICFilter);
 8003278:	893a      	ldrh	r2, [r7, #8]
 800327a:	88fb      	ldrh	r3, [r7, #6]
 800327c:	68f8      	ldr	r0, [r7, #12]
 800327e:	4611      	mov	r1, r2
 8003280:	f04f 0201 	mov.w	r2, #1
 8003284:	f000 f9ae 	bl	80035e4 <TI2_Config>
 8003288:	e007      	b.n	800329a <TIM_TIxExternalClockConfig+0x36>
  }
  else
  {
    TI1_Config(TIMx, TIM_ICPolarity, TIM_ICSelection_DirectTI, ICFilter);
 800328a:	893a      	ldrh	r2, [r7, #8]
 800328c:	88fb      	ldrh	r3, [r7, #6]
 800328e:	68f8      	ldr	r0, [r7, #12]
 8003290:	4611      	mov	r1, r2
 8003292:	f04f 0201 	mov.w	r2, #1
 8003296:	f000 f965 	bl	8003564 <TI1_Config>
  }
  /* Select the Trigger source */
  TIM_SelectInputTrigger(TIMx, TIM_TIxExternalCLKSource);
 800329a:	897b      	ldrh	r3, [r7, #10]
 800329c:	68f8      	ldr	r0, [r7, #12]
 800329e:	4619      	mov	r1, r3
 80032a0:	f000 f850 	bl	8003344 <TIM_SelectInputTrigger>
  /* Select the External clock mode1 */
  TIMx->SMCR |= TIM_SlaveMode_External1;
 80032a4:	68fb      	ldr	r3, [r7, #12]
 80032a6:	891b      	ldrh	r3, [r3, #8]
 80032a8:	b29b      	uxth	r3, r3
 80032aa:	f043 0307 	orr.w	r3, r3, #7
 80032ae:	b29a      	uxth	r2, r3
 80032b0:	68fb      	ldr	r3, [r7, #12]
 80032b2:	811a      	strh	r2, [r3, #8]
}
 80032b4:	f107 0710 	add.w	r7, r7, #16
 80032b8:	46bd      	mov	sp, r7
 80032ba:	bd80      	pop	{r7, pc}

080032bc <TIM_ETRClockMode1Config>:
  *          This parameter must be a value between 0x00 and 0x0F
  * @retval None
  */
void TIM_ETRClockMode1Config(TIM_TypeDef* TIMx, uint16_t TIM_ExtTRGPrescaler,
                            uint16_t TIM_ExtTRGPolarity, uint16_t ExtTRGFilter)
{
 80032bc:	b580      	push	{r7, lr}
 80032be:	b086      	sub	sp, #24
 80032c0:	af00      	add	r7, sp, #0
 80032c2:	60f8      	str	r0, [r7, #12]
 80032c4:	8179      	strh	r1, [r7, #10]
 80032c6:	813a      	strh	r2, [r7, #8]
 80032c8:	80fb      	strh	r3, [r7, #6]
  uint16_t tmpsmcr = 0;
 80032ca:	f04f 0300 	mov.w	r3, #0
 80032ce:	82fb      	strh	r3, [r7, #22]
  assert_param(IS_TIM_LIST3_PERIPH(TIMx));
  assert_param(IS_TIM_EXT_PRESCALER(TIM_ExtTRGPrescaler));
  assert_param(IS_TIM_EXT_POLARITY(TIM_ExtTRGPolarity));
  assert_param(IS_TIM_EXT_FILTER(ExtTRGFilter));
  /* Configure the ETR Clock source */
  TIM_ETRConfig(TIMx, TIM_ExtTRGPrescaler, TIM_ExtTRGPolarity, ExtTRGFilter);
 80032d0:	8979      	ldrh	r1, [r7, #10]
 80032d2:	893a      	ldrh	r2, [r7, #8]
 80032d4:	88fb      	ldrh	r3, [r7, #6]
 80032d6:	68f8      	ldr	r0, [r7, #12]
 80032d8:	f000 f8a4 	bl	8003424 <TIM_ETRConfig>
  
  /* Get the TIMx SMCR register value */
  tmpsmcr = TIMx->SMCR;
 80032dc:	68fb      	ldr	r3, [r7, #12]
 80032de:	891b      	ldrh	r3, [r3, #8]
 80032e0:	82fb      	strh	r3, [r7, #22]

  /* Reset the SMS Bits */
  tmpsmcr &= (uint16_t)~TIM_SMCR_SMS;
 80032e2:	8afb      	ldrh	r3, [r7, #22]
 80032e4:	f023 0307 	bic.w	r3, r3, #7
 80032e8:	82fb      	strh	r3, [r7, #22]

  /* Select the External clock mode1 */
  tmpsmcr |= TIM_SlaveMode_External1;
 80032ea:	8afb      	ldrh	r3, [r7, #22]
 80032ec:	f043 0307 	orr.w	r3, r3, #7
 80032f0:	82fb      	strh	r3, [r7, #22]

  /* Select the Trigger selection : ETRF */
  tmpsmcr &= (uint16_t)~TIM_SMCR_TS;
 80032f2:	8afb      	ldrh	r3, [r7, #22]
 80032f4:	f023 0370 	bic.w	r3, r3, #112	; 0x70
 80032f8:	82fb      	strh	r3, [r7, #22]
  tmpsmcr |= TIM_TS_ETRF;
 80032fa:	8afb      	ldrh	r3, [r7, #22]
 80032fc:	f043 0370 	orr.w	r3, r3, #112	; 0x70
 8003300:	82fb      	strh	r3, [r7, #22]

  /* Write to TIMx SMCR */
  TIMx->SMCR = tmpsmcr;
 8003302:	68fb      	ldr	r3, [r7, #12]
 8003304:	8afa      	ldrh	r2, [r7, #22]
 8003306:	811a      	strh	r2, [r3, #8]
}
 8003308:	f107 0718 	add.w	r7, r7, #24
 800330c:	46bd      	mov	sp, r7
 800330e:	bd80      	pop	{r7, pc}

08003310 <TIM_ETRClockMode2Config>:
  *          This parameter must be a value between 0x00 and 0x0F
  * @retval None
  */
void TIM_ETRClockMode2Config(TIM_TypeDef* TIMx, uint16_t TIM_ExtTRGPrescaler, 
                             uint16_t TIM_ExtTRGPolarity, uint16_t ExtTRGFilter)
{
 8003310:	b580      	push	{r7, lr}
 8003312:	b084      	sub	sp, #16
 8003314:	af00      	add	r7, sp, #0
 8003316:	60f8      	str	r0, [r7, #12]
 8003318:	8179      	strh	r1, [r7, #10]
 800331a:	813a      	strh	r2, [r7, #8]
 800331c:	80fb      	strh	r3, [r7, #6]
  assert_param(IS_TIM_EXT_PRESCALER(TIM_ExtTRGPrescaler));
  assert_param(IS_TIM_EXT_POLARITY(TIM_ExtTRGPolarity));
  assert_param(IS_TIM_EXT_FILTER(ExtTRGFilter));

  /* Configure the ETR Clock source */
  TIM_ETRConfig(TIMx, TIM_ExtTRGPrescaler, TIM_ExtTRGPolarity, ExtTRGFilter);
 800331e:	8979      	ldrh	r1, [r7, #10]
 8003320:	893a      	ldrh	r2, [r7, #8]
 8003322:	88fb      	ldrh	r3, [r7, #6]
 8003324:	68f8      	ldr	r0, [r7, #12]
 8003326:	f000 f87d 	bl	8003424 <TIM_ETRConfig>

  /* Enable the External clock mode2 */
  TIMx->SMCR |= TIM_SMCR_ECE;
 800332a:	68fb      	ldr	r3, [r7, #12]
 800332c:	891b      	ldrh	r3, [r3, #8]
 800332e:	b29b      	uxth	r3, r3
 8003330:	f443 4380 	orr.w	r3, r3, #16384	; 0x4000
 8003334:	b29a      	uxth	r2, r3
 8003336:	68fb      	ldr	r3, [r7, #12]
 8003338:	811a      	strh	r2, [r3, #8]
}
 800333a:	f107 0710 	add.w	r7, r7, #16
 800333e:	46bd      	mov	sp, r7
 8003340:	bd80      	pop	{r7, pc}
 8003342:	bf00      	nop

08003344 <TIM_SelectInputTrigger>:
  *            @arg TIM_TS_TI2FP2: Filtered Timer Input 2
  *            @arg TIM_TS_ETRF: External Trigger input
  * @retval None
  */
void TIM_SelectInputTrigger(TIM_TypeDef* TIMx, uint16_t TIM_InputTriggerSource)
{
 8003344:	b480      	push	{r7}
 8003346:	b085      	sub	sp, #20
 8003348:	af00      	add	r7, sp, #0
 800334a:	6078      	str	r0, [r7, #4]
 800334c:	460b      	mov	r3, r1
 800334e:	807b      	strh	r3, [r7, #2]
  uint16_t tmpsmcr = 0;
 8003350:	f04f 0300 	mov.w	r3, #0
 8003354:	81fb      	strh	r3, [r7, #14]
  /* Check the parameters */
  assert_param(IS_TIM_LIST1_PERIPH(TIMx)); 
  assert_param(IS_TIM_TRIGGER_SELECTION(TIM_InputTriggerSource));

  /* Get the TIMx SMCR register value */
  tmpsmcr = TIMx->SMCR;
 8003356:	687b      	ldr	r3, [r7, #4]
 8003358:	891b      	ldrh	r3, [r3, #8]
 800335a:	81fb      	strh	r3, [r7, #14]

  /* Reset the TS Bits */
  tmpsmcr &= (uint16_t)~TIM_SMCR_TS;
 800335c:	89fb      	ldrh	r3, [r7, #14]
 800335e:	f023 0370 	bic.w	r3, r3, #112	; 0x70
 8003362:	81fb      	strh	r3, [r7, #14]

  /* Set the Input Trigger source */
  tmpsmcr |= TIM_InputTriggerSource;
 8003364:	89fa      	ldrh	r2, [r7, #14]
 8003366:	887b      	ldrh	r3, [r7, #2]
 8003368:	4313      	orrs	r3, r2
 800336a:	81fb      	strh	r3, [r7, #14]

  /* Write to TIMx SMCR */
  TIMx->SMCR = tmpsmcr;
 800336c:	687b      	ldr	r3, [r7, #4]
 800336e:	89fa      	ldrh	r2, [r7, #14]
 8003370:	811a      	strh	r2, [r3, #8]
}
 8003372:	f107 0714 	add.w	r7, r7, #20
 8003376:	46bd      	mov	sp, r7
 8003378:	bc80      	pop	{r7}
 800337a:	4770      	bx	lr

0800337c <TIM_SelectOutputTrigger>:
  *            @arg TIM_TRGOSource_OC4Ref: OC4REF signal is used as the trigger output(TRGO)
  *
  * @retval None
  */
void TIM_SelectOutputTrigger(TIM_TypeDef* TIMx, uint16_t TIM_TRGOSource)
{
 800337c:	b480      	push	{r7}
 800337e:	b083      	sub	sp, #12
 8003380:	af00      	add	r7, sp, #0
 8003382:	6078      	str	r0, [r7, #4]
 8003384:	460b      	mov	r3, r1
 8003386:	807b      	strh	r3, [r7, #2]
  /* Check the parameters */
  assert_param(IS_TIM_LIST5_PERIPH(TIMx));
  assert_param(IS_TIM_TRGO_SOURCE(TIM_TRGOSource));

  /* Reset the MMS Bits */
  TIMx->CR2 &= (uint16_t)~TIM_CR2_MMS;
 8003388:	687b      	ldr	r3, [r7, #4]
 800338a:	889b      	ldrh	r3, [r3, #4]
 800338c:	b29b      	uxth	r3, r3
 800338e:	f023 0370 	bic.w	r3, r3, #112	; 0x70
 8003392:	b29a      	uxth	r2, r3
 8003394:	687b      	ldr	r3, [r7, #4]
 8003396:	809a      	strh	r2, [r3, #4]
  /* Select the TRGO source */
  TIMx->CR2 |=  TIM_TRGOSource;
 8003398:	687b      	ldr	r3, [r7, #4]
 800339a:	889b      	ldrh	r3, [r3, #4]
 800339c:	b29a      	uxth	r2, r3
 800339e:	887b      	ldrh	r3, [r7, #2]
 80033a0:	4313      	orrs	r3, r2
 80033a2:	b29a      	uxth	r2, r3
 80033a4:	687b      	ldr	r3, [r7, #4]
 80033a6:	809a      	strh	r2, [r3, #4]
}
 80033a8:	f107 070c 	add.w	r7, r7, #12
 80033ac:	46bd      	mov	sp, r7
 80033ae:	bc80      	pop	{r7}
 80033b0:	4770      	bx	lr
 80033b2:	bf00      	nop

080033b4 <TIM_SelectSlaveMode>:
  *            @arg TIM_SlaveMode_Trigger:   The counter starts at a rising edge of the trigger TRGI
  *            @arg TIM_SlaveMode_External1: Rising edges of the selected trigger (TRGI) clock the counter
  * @retval None
  */
void TIM_SelectSlaveMode(TIM_TypeDef* TIMx, uint16_t TIM_SlaveMode)
{
 80033b4:	b480      	push	{r7}
 80033b6:	b083      	sub	sp, #12
 80033b8:	af00      	add	r7, sp, #0
 80033ba:	6078      	str	r0, [r7, #4]
 80033bc:	460b      	mov	r3, r1
 80033be:	807b      	strh	r3, [r7, #2]
  /* Check the parameters */
  assert_param(IS_TIM_LIST2_PERIPH(TIMx));
  assert_param(IS_TIM_SLAVE_MODE(TIM_SlaveMode));

  /* Reset the SMS Bits */
  TIMx->SMCR &= (uint16_t)~TIM_SMCR_SMS;
 80033c0:	687b      	ldr	r3, [r7, #4]
 80033c2:	891b      	ldrh	r3, [r3, #8]
 80033c4:	b29b      	uxth	r3, r3
 80033c6:	f023 0307 	bic.w	r3, r3, #7
 80033ca:	b29a      	uxth	r2, r3
 80033cc:	687b      	ldr	r3, [r7, #4]
 80033ce:	811a      	strh	r2, [r3, #8]

  /* Select the Slave Mode */
  TIMx->SMCR |= TIM_SlaveMode;
 80033d0:	687b      	ldr	r3, [r7, #4]
 80033d2:	891b      	ldrh	r3, [r3, #8]
 80033d4:	b29a      	uxth	r2, r3
 80033d6:	887b      	ldrh	r3, [r7, #2]
 80033d8:	4313      	orrs	r3, r2
 80033da:	b29a      	uxth	r2, r3
 80033dc:	687b      	ldr	r3, [r7, #4]
 80033de:	811a      	strh	r2, [r3, #8]
}
 80033e0:	f107 070c 	add.w	r7, r7, #12
 80033e4:	46bd      	mov	sp, r7
 80033e6:	bc80      	pop	{r7}
 80033e8:	4770      	bx	lr
 80033ea:	bf00      	nop

080033ec <TIM_SelectMasterSlaveMode>:
  *                                             and its slaves (through TRGO)
  *            @arg TIM_MasterSlaveMode_Disable: No action
  * @retval None
  */
void TIM_SelectMasterSlaveMode(TIM_TypeDef* TIMx, uint16_t TIM_MasterSlaveMode)
{
 80033ec:	b480      	push	{r7}
 80033ee:	b083      	sub	sp, #12
 80033f0:	af00      	add	r7, sp, #0
 80033f2:	6078      	str	r0, [r7, #4]
 80033f4:	460b      	mov	r3, r1
 80033f6:	807b      	strh	r3, [r7, #2]
  /* Check the parameters */
  assert_param(IS_TIM_LIST2_PERIPH(TIMx));
  assert_param(IS_TIM_MSM_STATE(TIM_MasterSlaveMode));

  /* Reset the MSM Bit */
  TIMx->SMCR &= (uint16_t)~TIM_SMCR_MSM;
 80033f8:	687b      	ldr	r3, [r7, #4]
 80033fa:	891b      	ldrh	r3, [r3, #8]
 80033fc:	b29b      	uxth	r3, r3
 80033fe:	f023 0380 	bic.w	r3, r3, #128	; 0x80
 8003402:	b29a      	uxth	r2, r3
 8003404:	687b      	ldr	r3, [r7, #4]
 8003406:	811a      	strh	r2, [r3, #8]
  
  /* Set or Reset the MSM Bit */
  TIMx->SMCR |= TIM_MasterSlaveMode;
 8003408:	687b      	ldr	r3, [r7, #4]
 800340a:	891b      	ldrh	r3, [r3, #8]
 800340c:	b29a      	uxth	r2, r3
 800340e:	887b      	ldrh	r3, [r7, #2]
 8003410:	4313      	orrs	r3, r2
 8003412:	b29a      	uxth	r2, r3
 8003414:	687b      	ldr	r3, [r7, #4]
 8003416:	811a      	strh	r2, [r3, #8]
}
 8003418:	f107 070c 	add.w	r7, r7, #12
 800341c:	46bd      	mov	sp, r7
 800341e:	bc80      	pop	{r7}
 8003420:	4770      	bx	lr
 8003422:	bf00      	nop

08003424 <TIM_ETRConfig>:
  *          This parameter must be a value between 0x00 and 0x0F
  * @retval None
  */
void TIM_ETRConfig(TIM_TypeDef* TIMx, uint16_t TIM_ExtTRGPrescaler,
                   uint16_t TIM_ExtTRGPolarity, uint16_t ExtTRGFilter)
{
 8003424:	b480      	push	{r7}
 8003426:	b087      	sub	sp, #28
 8003428:	af00      	add	r7, sp, #0
 800342a:	60f8      	str	r0, [r7, #12]
 800342c:	8179      	strh	r1, [r7, #10]
 800342e:	813a      	strh	r2, [r7, #8]
 8003430:	80fb      	strh	r3, [r7, #6]
  uint16_t tmpsmcr = 0;
 8003432:	f04f 0300 	mov.w	r3, #0
 8003436:	82fb      	strh	r3, [r7, #22]
  assert_param(IS_TIM_LIST3_PERIPH(TIMx));
  assert_param(IS_TIM_EXT_PRESCALER(TIM_ExtTRGPrescaler));
  assert_param(IS_TIM_EXT_POLARITY(TIM_ExtTRGPolarity));
  assert_param(IS_TIM_EXT_FILTER(ExtTRGFilter));

  tmpsmcr = TIMx->SMCR;
 8003438:	68fb      	ldr	r3, [r7, #12]
 800343a:	891b      	ldrh	r3, [r3, #8]
 800343c:	82fb      	strh	r3, [r7, #22]

  /* Reset the ETR Bits */
  tmpsmcr &= SMCR_ETR_MASK;
 800343e:	8afb      	ldrh	r3, [r7, #22]
 8003440:	b2db      	uxtb	r3, r3
 8003442:	82fb      	strh	r3, [r7, #22]

  /* Set the Prescaler, the Filter value and the Polarity */
  tmpsmcr |= (uint16_t)(TIM_ExtTRGPrescaler | (uint16_t)(TIM_ExtTRGPolarity | (uint16_t)(ExtTRGFilter << (uint16_t)8)));
 8003444:	88fb      	ldrh	r3, [r7, #6]
 8003446:	ea4f 2303 	mov.w	r3, r3, lsl #8
 800344a:	b29a      	uxth	r2, r3
 800344c:	893b      	ldrh	r3, [r7, #8]
 800344e:	4313      	orrs	r3, r2
 8003450:	b29a      	uxth	r2, r3
 8003452:	897b      	ldrh	r3, [r7, #10]
 8003454:	4313      	orrs	r3, r2
 8003456:	b29a      	uxth	r2, r3
 8003458:	8afb      	ldrh	r3, [r7, #22]
 800345a:	4313      	orrs	r3, r2
 800345c:	82fb      	strh	r3, [r7, #22]

  /* Write to TIMx SMCR */
  TIMx->SMCR = tmpsmcr;
 800345e:	68fb      	ldr	r3, [r7, #12]
 8003460:	8afa      	ldrh	r2, [r7, #22]
 8003462:	811a      	strh	r2, [r3, #8]
}
 8003464:	f107 071c 	add.w	r7, r7, #28
 8003468:	46bd      	mov	sp, r7
 800346a:	bc80      	pop	{r7}
 800346c:	4770      	bx	lr
 800346e:	bf00      	nop

08003470 <TIM_EncoderInterfaceConfig>:
  *            @arg TIM_ICPolarity_Rising: IC Rising edge.
  * @retval None
  */
void TIM_EncoderInterfaceConfig(TIM_TypeDef* TIMx, uint16_t TIM_EncoderMode,
                                uint16_t TIM_IC1Polarity, uint16_t TIM_IC2Polarity)
{
 8003470:	b480      	push	{r7}
 8003472:	b087      	sub	sp, #28
 8003474:	af00      	add	r7, sp, #0
 8003476:	60f8      	str	r0, [r7, #12]
 8003478:	8179      	strh	r1, [r7, #10]
 800347a:	813a      	strh	r2, [r7, #8]
 800347c:	80fb      	strh	r3, [r7, #6]
  uint16_t tmpsmcr = 0;
 800347e:	f04f 0300 	mov.w	r3, #0
 8003482:	82fb      	strh	r3, [r7, #22]
  uint16_t tmpccmr1 = 0;
 8003484:	f04f 0300 	mov.w	r3, #0
 8003488:	82bb      	strh	r3, [r7, #20]
  uint16_t tmpccer = 0;
 800348a:	f04f 0300 	mov.w	r3, #0
 800348e:	827b      	strh	r3, [r7, #18]
  assert_param(IS_TIM_ENCODER_MODE(TIM_EncoderMode));
  assert_param(IS_TIM_IC_POLARITY(TIM_IC1Polarity));
  assert_param(IS_TIM_IC_POLARITY(TIM_IC2Polarity));

  /* Get the TIMx SMCR register value */
  tmpsmcr = TIMx->SMCR;
 8003490:	68fb      	ldr	r3, [r7, #12]
 8003492:	891b      	ldrh	r3, [r3, #8]
 8003494:	82fb      	strh	r3, [r7, #22]

  /* Get the TIMx CCMR1 register value */
  tmpccmr1 = TIMx->CCMR1;
 8003496:	68fb      	ldr	r3, [r7, #12]
 8003498:	8b1b      	ldrh	r3, [r3, #24]
 800349a:	82bb      	strh	r3, [r7, #20]

  /* Get the TIMx CCER register value */
  tmpccer = TIMx->CCER;
 800349c:	68fb      	ldr	r3, [r7, #12]
 800349e:	8c1b      	ldrh	r3, [r3, #32]
 80034a0:	827b      	strh	r3, [r7, #18]

  /* Set the encoder Mode */
  tmpsmcr &= (uint16_t)~TIM_SMCR_SMS;
 80034a2:	8afb      	ldrh	r3, [r7, #22]
 80034a4:	f023 0307 	bic.w	r3, r3, #7
 80034a8:	82fb      	strh	r3, [r7, #22]
  tmpsmcr |= TIM_EncoderMode;
 80034aa:	8afa      	ldrh	r2, [r7, #22]
 80034ac:	897b      	ldrh	r3, [r7, #10]
 80034ae:	4313      	orrs	r3, r2
 80034b0:	82fb      	strh	r3, [r7, #22]

  /* Select the Capture Compare 1 and the Capture Compare 2 as input */
  tmpccmr1 &= ((uint16_t)~TIM_CCMR1_CC1S) & ((uint16_t)~TIM_CCMR1_CC2S);
 80034b2:	8abb      	ldrh	r3, [r7, #20]
 80034b4:	f423 7340 	bic.w	r3, r3, #768	; 0x300
 80034b8:	f023 0303 	bic.w	r3, r3, #3
 80034bc:	82bb      	strh	r3, [r7, #20]
  tmpccmr1 |= TIM_CCMR1_CC1S_0 | TIM_CCMR1_CC2S_0;
 80034be:	8abb      	ldrh	r3, [r7, #20]
 80034c0:	f443 7380 	orr.w	r3, r3, #256	; 0x100
 80034c4:	f043 0301 	orr.w	r3, r3, #1
 80034c8:	82bb      	strh	r3, [r7, #20]

  /* Set the TI1 and the TI2 Polarities */
  tmpccer &= ((uint16_t)~TIM_CCER_CC1P) & ((uint16_t)~TIM_CCER_CC2P);
 80034ca:	8a7b      	ldrh	r3, [r7, #18]
 80034cc:	f023 0322 	bic.w	r3, r3, #34	; 0x22
 80034d0:	827b      	strh	r3, [r7, #18]
  tmpccer |= (uint16_t)(TIM_IC1Polarity | (uint16_t)(TIM_IC2Polarity << (uint16_t)4));
 80034d2:	88fb      	ldrh	r3, [r7, #6]
 80034d4:	ea4f 1303 	mov.w	r3, r3, lsl #4
 80034d8:	b29a      	uxth	r2, r3
 80034da:	893b      	ldrh	r3, [r7, #8]
 80034dc:	4313      	orrs	r3, r2
 80034de:	b29a      	uxth	r2, r3
 80034e0:	8a7b      	ldrh	r3, [r7, #18]
 80034e2:	4313      	orrs	r3, r2
 80034e4:	827b      	strh	r3, [r7, #18]

  /* Write to TIMx SMCR */
  TIMx->SMCR = tmpsmcr;
 80034e6:	68fb      	ldr	r3, [r7, #12]
 80034e8:	8afa      	ldrh	r2, [r7, #22]
 80034ea:	811a      	strh	r2, [r3, #8]

  /* Write to TIMx CCMR1 */
  TIMx->CCMR1 = tmpccmr1;
 80034ec:	68fb      	ldr	r3, [r7, #12]
 80034ee:	8aba      	ldrh	r2, [r7, #20]
 80034f0:	831a      	strh	r2, [r3, #24]

  /* Write to TIMx CCER */
  TIMx->CCER = tmpccer;
 80034f2:	68fb      	ldr	r3, [r7, #12]
 80034f4:	8a7a      	ldrh	r2, [r7, #18]
 80034f6:	841a      	strh	r2, [r3, #32]
}
 80034f8:	f107 071c 	add.w	r7, r7, #28
 80034fc:	46bd      	mov	sp, r7
 80034fe:	bc80      	pop	{r7}
 8003500:	4770      	bx	lr
 8003502:	bf00      	nop

08003504 <TIM_SelectHallSensor>:
  * @param  NewState: new state of the TIMx Hall sensor interface.
  *          This parameter can be: ENABLE or DISABLE.
  * @retval None
  */
void TIM_SelectHallSensor(TIM_TypeDef* TIMx, FunctionalState NewState)
{
 8003504:	b480      	push	{r7}
 8003506:	b083      	sub	sp, #12
 8003508:	af00      	add	r7, sp, #0
 800350a:	6078      	str	r0, [r7, #4]
 800350c:	460b      	mov	r3, r1
 800350e:	70fb      	strb	r3, [r7, #3]
  /* Check the parameters */
  assert_param(IS_TIM_LIST2_PERIPH(TIMx));
  assert_param(IS_FUNCTIONAL_STATE(NewState));

  if (NewState != DISABLE)
 8003510:	78fb      	ldrb	r3, [r7, #3]
 8003512:	2b00      	cmp	r3, #0
 8003514:	d008      	beq.n	8003528 <TIM_SelectHallSensor+0x24>
  {
    /* Set the TI1S Bit */
    TIMx->CR2 |= TIM_CR2_TI1S;
 8003516:	687b      	ldr	r3, [r7, #4]
 8003518:	889b      	ldrh	r3, [r3, #4]
 800351a:	b29b      	uxth	r3, r3
 800351c:	f043 0380 	orr.w	r3, r3, #128	; 0x80
 8003520:	b29a      	uxth	r2, r3
 8003522:	687b      	ldr	r3, [r7, #4]
 8003524:	809a      	strh	r2, [r3, #4]
 8003526:	e007      	b.n	8003538 <TIM_SelectHallSensor+0x34>
  }
  else
  {
    /* Reset the TI1S Bit */
    TIMx->CR2 &= (uint16_t)~TIM_CR2_TI1S;
 8003528:	687b      	ldr	r3, [r7, #4]
 800352a:	889b      	ldrh	r3, [r3, #4]
 800352c:	b29b      	uxth	r3, r3
 800352e:	f023 0380 	bic.w	r3, r3, #128	; 0x80
 8003532:	b29a      	uxth	r2, r3
 8003534:	687b      	ldr	r3, [r7, #4]
 8003536:	809a      	strh	r2, [r3, #4]
  }
}
 8003538:	f107 070c 	add.w	r7, r7, #12
 800353c:	46bd      	mov	sp, r7
 800353e:	bc80      	pop	{r7}
 8003540:	4770      	bx	lr
 8003542:	bf00      	nop

08003544 <TIM_RemapConfig>:
  *            @arg TIM11_HSE:      TIM11 CH4 input is connected to HSE_RTC clock
  *                                 (HSE divided by a programmable prescaler)  
  * @retval None
  */
void TIM_RemapConfig(TIM_TypeDef* TIMx, uint16_t TIM_Remap)
{
 8003544:	b480      	push	{r7}
 8003546:	b083      	sub	sp, #12
 8003548:	af00      	add	r7, sp, #0
 800354a:	6078      	str	r0, [r7, #4]
 800354c:	460b      	mov	r3, r1
 800354e:	807b      	strh	r3, [r7, #2]
 /* Check the parameters */
  assert_param(IS_TIM_LIST6_PERIPH(TIMx));
  assert_param(IS_TIM_REMAP(TIM_Remap));

  /* Set the Timer remapping configuration */
  TIMx->OR =  TIM_Remap;
 8003550:	687b      	ldr	r3, [r7, #4]
 8003552:	887a      	ldrh	r2, [r7, #2]
 8003554:	f8a3 2050 	strh.w	r2, [r3, #80]	; 0x50
}
 8003558:	f107 070c 	add.w	r7, r7, #12
 800355c:	46bd      	mov	sp, r7
 800355e:	bc80      	pop	{r7}
 8003560:	4770      	bx	lr
 8003562:	bf00      	nop

08003564 <TI1_Config>:
  *          This parameter must be a value between 0x00 and 0x0F.
  * @retval None
  */
static void TI1_Config(TIM_TypeDef* TIMx, uint16_t TIM_ICPolarity, uint16_t TIM_ICSelection,
                       uint16_t TIM_ICFilter)
{
 8003564:	b480      	push	{r7}
 8003566:	b087      	sub	sp, #28
 8003568:	af00      	add	r7, sp, #0
 800356a:	60f8      	str	r0, [r7, #12]
 800356c:	8179      	strh	r1, [r7, #10]
 800356e:	813a      	strh	r2, [r7, #8]
 8003570:	80fb      	strh	r3, [r7, #6]
  uint16_t tmpccmr1 = 0, tmpccer = 0;
 8003572:	f04f 0300 	mov.w	r3, #0
 8003576:	82fb      	strh	r3, [r7, #22]
 8003578:	f04f 0300 	mov.w	r3, #0
 800357c:	82bb      	strh	r3, [r7, #20]

  /* Disable the Channel 1: Reset the CC1E Bit */
  TIMx->CCER &= (uint16_t)~TIM_CCER_CC1E;
 800357e:	68fb      	ldr	r3, [r7, #12]
 8003580:	8c1b      	ldrh	r3, [r3, #32]
 8003582:	b29b      	uxth	r3, r3
 8003584:	f023 0301 	bic.w	r3, r3, #1
 8003588:	b29a      	uxth	r2, r3
 800358a:	68fb      	ldr	r3, [r7, #12]
 800358c:	841a      	strh	r2, [r3, #32]
  tmpccmr1 = TIMx->CCMR1;
 800358e:	68fb      	ldr	r3, [r7, #12]
 8003590:	8b1b      	ldrh	r3, [r3, #24]
 8003592:	82fb      	strh	r3, [r7, #22]
  tmpccer = TIMx->CCER;
 8003594:	68fb      	ldr	r3, [r7, #12]
 8003596:	8c1b      	ldrh	r3, [r3, #32]
 8003598:	82bb      	strh	r3, [r7, #20]

  /* Select the Input and set the filter */
  tmpccmr1 &= ((uint16_t)~TIM_CCMR1_CC1S) & ((uint16_t)~TIM_CCMR1_IC1F);
 800359a:	8afb      	ldrh	r3, [r7, #22]
 800359c:	f023 03f3 	bic.w	r3, r3, #243	; 0xf3
 80035a0:	82fb      	strh	r3, [r7, #22]
  tmpccmr1 |= (uint16_t)(TIM_ICSelection | (uint16_t)(TIM_ICFilter << (uint16_t)4));
 80035a2:	88fb      	ldrh	r3, [r7, #6]
 80035a4:	ea4f 1303 	mov.w	r3, r3, lsl #4
 80035a8:	b29a      	uxth	r2, r3
 80035aa:	893b      	ldrh	r3, [r7, #8]
 80035ac:	4313      	orrs	r3, r2
 80035ae:	b29a      	uxth	r2, r3
 80035b0:	8afb      	ldrh	r3, [r7, #22]
 80035b2:	4313      	orrs	r3, r2
 80035b4:	82fb      	strh	r3, [r7, #22]

  /* Select the Polarity and set the CC1E Bit */
  tmpccer &= (uint16_t)~(TIM_CCER_CC1P | TIM_CCER_CC1NP);
 80035b6:	8abb      	ldrh	r3, [r7, #20]
 80035b8:	f023 030a 	bic.w	r3, r3, #10
 80035bc:	82bb      	strh	r3, [r7, #20]
  tmpccer |= (uint16_t)(TIM_ICPolarity | (uint16_t)TIM_CCER_CC1E);
 80035be:	897a      	ldrh	r2, [r7, #10]
 80035c0:	8abb      	ldrh	r3, [r7, #20]
 80035c2:	4313      	orrs	r3, r2
 80035c4:	b29b      	uxth	r3, r3
 80035c6:	f043 0301 	orr.w	r3, r3, #1
 80035ca:	82bb      	strh	r3, [r7, #20]

  /* Write to TIMx CCMR1 and CCER registers */
  TIMx->CCMR1 = tmpccmr1;
 80035cc:	68fb      	ldr	r3, [r7, #12]
 80035ce:	8afa      	ldrh	r2, [r7, #22]
 80035d0:	831a      	strh	r2, [r3, #24]
  TIMx->CCER = tmpccer;
 80035d2:	68fb      	ldr	r3, [r7, #12]
 80035d4:	8aba      	ldrh	r2, [r7, #20]
 80035d6:	841a      	strh	r2, [r3, #32]
}
 80035d8:	f107 071c 	add.w	r7, r7, #28
 80035dc:	46bd      	mov	sp, r7
 80035de:	bc80      	pop	{r7}
 80035e0:	4770      	bx	lr
 80035e2:	bf00      	nop

080035e4 <TI2_Config>:
  *          This parameter must be a value between 0x00 and 0x0F.
  * @retval None
  */
static void TI2_Config(TIM_TypeDef* TIMx, uint16_t TIM_ICPolarity, uint16_t TIM_ICSelection,
                       uint16_t TIM_ICFilter)
{
 80035e4:	b480      	push	{r7}
 80035e6:	b087      	sub	sp, #28
 80035e8:	af00      	add	r7, sp, #0
 80035ea:	60f8      	str	r0, [r7, #12]
 80035ec:	8179      	strh	r1, [r7, #10]
 80035ee:	813a      	strh	r2, [r7, #8]
 80035f0:	80fb      	strh	r3, [r7, #6]
  uint16_t tmpccmr1 = 0, tmpccer = 0, tmp = 0;
 80035f2:	f04f 0300 	mov.w	r3, #0
 80035f6:	82fb      	strh	r3, [r7, #22]
 80035f8:	f04f 0300 	mov.w	r3, #0
 80035fc:	82bb      	strh	r3, [r7, #20]
 80035fe:	f04f 0300 	mov.w	r3, #0
 8003602:	827b      	strh	r3, [r7, #18]

  /* Disable the Channel 2: Reset the CC2E Bit */
  TIMx->CCER &= (uint16_t)~TIM_CCER_CC2E;
 8003604:	68fb      	ldr	r3, [r7, #12]
 8003606:	8c1b      	ldrh	r3, [r3, #32]
 8003608:	b29b      	uxth	r3, r3
 800360a:	f023 0310 	bic.w	r3, r3, #16
 800360e:	b29a      	uxth	r2, r3
 8003610:	68fb      	ldr	r3, [r7, #12]
 8003612:	841a      	strh	r2, [r3, #32]
  tmpccmr1 = TIMx->CCMR1;
 8003614:	68fb      	ldr	r3, [r7, #12]
 8003616:	8b1b      	ldrh	r3, [r3, #24]
 8003618:	82fb      	strh	r3, [r7, #22]
  tmpccer = TIMx->CCER;
 800361a:	68fb      	ldr	r3, [r7, #12]
 800361c:	8c1b      	ldrh	r3, [r3, #32]
 800361e:	82bb      	strh	r3, [r7, #20]
  tmp = (uint16_t)(TIM_ICPolarity << 4);
 8003620:	897b      	ldrh	r3, [r7, #10]
 8003622:	ea4f 1303 	mov.w	r3, r3, lsl #4
 8003626:	827b      	strh	r3, [r7, #18]

  /* Select the Input and set the filter */
  tmpccmr1 &= ((uint16_t)~TIM_CCMR1_CC2S) & ((uint16_t)~TIM_CCMR1_IC2F);
 8003628:	8afb      	ldrh	r3, [r7, #22]
 800362a:	f423 7340 	bic.w	r3, r3, #768	; 0x300
 800362e:	ea4f 5303 	mov.w	r3, r3, lsl #20
 8003632:	ea4f 5313 	mov.w	r3, r3, lsr #20
 8003636:	82fb      	strh	r3, [r7, #22]
  tmpccmr1 |= (uint16_t)(TIM_ICFilter << 12);
 8003638:	88fb      	ldrh	r3, [r7, #6]
 800363a:	ea4f 3303 	mov.w	r3, r3, lsl #12
 800363e:	b29a      	uxth	r2, r3
 8003640:	8afb      	ldrh	r3, [r7, #22]
 8003642:	4313      	orrs	r3, r2
 8003644:	82fb      	strh	r3, [r7, #22]
  tmpccmr1 |= (uint16_t)(TIM_ICSelection << 8);
 8003646:	893b      	ldrh	r3, [r7, #8]
 8003648:	ea4f 2303 	mov.w	r3, r3, lsl #8
 800364c:	b29a      	uxth	r2, r3
 800364e:	8afb      	ldrh	r3, [r7, #22]
 8003650:	4313      	orrs	r3, r2
 8003652:	82fb      	strh	r3, [r7, #22]

  /* Select the Polarity and set the CC2E Bit */
  tmpccer &= (uint16_t)~(TIM_CCER_CC2P | TIM_CCER_CC2NP);
 8003654:	8abb      	ldrh	r3, [r7, #20]
 8003656:	f023 03a0 	bic.w	r3, r3, #160	; 0xa0
 800365a:	82bb      	strh	r3, [r7, #20]
  tmpccer |=  (uint16_t)(tmp | (uint16_t)TIM_CCER_CC2E);
 800365c:	8a7a      	ldrh	r2, [r7, #18]
 800365e:	8abb      	ldrh	r3, [r7, #20]
 8003660:	4313      	orrs	r3, r2
 8003662:	b29b      	uxth	r3, r3
 8003664:	f043 0310 	orr.w	r3, r3, #16
 8003668:	82bb      	strh	r3, [r7, #20]

  /* Write to TIMx CCMR1 and CCER registers */
  TIMx->CCMR1 = tmpccmr1 ;
 800366a:	68fb      	ldr	r3, [r7, #12]
 800366c:	8afa      	ldrh	r2, [r7, #22]
 800366e:	831a      	strh	r2, [r3, #24]
  TIMx->CCER = tmpccer;
 8003670:	68fb      	ldr	r3, [r7, #12]
 8003672:	8aba      	ldrh	r2, [r7, #20]
 8003674:	841a      	strh	r2, [r3, #32]
}
 8003676:	f107 071c 	add.w	r7, r7, #28
 800367a:	46bd      	mov	sp, r7
 800367c:	bc80      	pop	{r7}
 800367e:	4770      	bx	lr

08003680 <TI3_Config>:
  *          This parameter must be a value between 0x00 and 0x0F.
  * @retval None
  */
static void TI3_Config(TIM_TypeDef* TIMx, uint16_t TIM_ICPolarity, uint16_t TIM_ICSelection,
                       uint16_t TIM_ICFilter)
{
 8003680:	b480      	push	{r7}
 8003682:	b087      	sub	sp, #28
 8003684:	af00      	add	r7, sp, #0
 8003686:	60f8      	str	r0, [r7, #12]
 8003688:	8179      	strh	r1, [r7, #10]
 800368a:	813a      	strh	r2, [r7, #8]
 800368c:	80fb      	strh	r3, [r7, #6]
  uint16_t tmpccmr2 = 0, tmpccer = 0, tmp = 0;
 800368e:	f04f 0300 	mov.w	r3, #0
 8003692:	82fb      	strh	r3, [r7, #22]
 8003694:	f04f 0300 	mov.w	r3, #0
 8003698:	82bb      	strh	r3, [r7, #20]
 800369a:	f04f 0300 	mov.w	r3, #0
 800369e:	827b      	strh	r3, [r7, #18]

  /* Disable the Channel 3: Reset the CC3E Bit */
  TIMx->CCER &= (uint16_t)~TIM_CCER_CC3E;
 80036a0:	68fb      	ldr	r3, [r7, #12]
 80036a2:	8c1b      	ldrh	r3, [r3, #32]
 80036a4:	b29b      	uxth	r3, r3
 80036a6:	f423 7380 	bic.w	r3, r3, #256	; 0x100
 80036aa:	b29a      	uxth	r2, r3
 80036ac:	68fb      	ldr	r3, [r7, #12]
 80036ae:	841a      	strh	r2, [r3, #32]
  tmpccmr2 = TIMx->CCMR2;
 80036b0:	68fb      	ldr	r3, [r7, #12]
 80036b2:	8b9b      	ldrh	r3, [r3, #28]
 80036b4:	82fb      	strh	r3, [r7, #22]
  tmpccer = TIMx->CCER;
 80036b6:	68fb      	ldr	r3, [r7, #12]
 80036b8:	8c1b      	ldrh	r3, [r3, #32]
 80036ba:	82bb      	strh	r3, [r7, #20]
  tmp = (uint16_t)(TIM_ICPolarity << 8);
 80036bc:	897b      	ldrh	r3, [r7, #10]
 80036be:	ea4f 2303 	mov.w	r3, r3, lsl #8
 80036c2:	827b      	strh	r3, [r7, #18]

  /* Select the Input and set the filter */
  tmpccmr2 &= ((uint16_t)~TIM_CCMR1_CC1S) & ((uint16_t)~TIM_CCMR2_IC3F);
 80036c4:	8afb      	ldrh	r3, [r7, #22]
 80036c6:	f023 03f3 	bic.w	r3, r3, #243	; 0xf3
 80036ca:	82fb      	strh	r3, [r7, #22]
  tmpccmr2 |= (uint16_t)(TIM_ICSelection | (uint16_t)(TIM_ICFilter << (uint16_t)4));
 80036cc:	88fb      	ldrh	r3, [r7, #6]
 80036ce:	ea4f 1303 	mov.w	r3, r3, lsl #4
 80036d2:	b29a      	uxth	r2, r3
 80036d4:	893b      	ldrh	r3, [r7, #8]
 80036d6:	4313      	orrs	r3, r2
 80036d8:	b29a      	uxth	r2, r3
 80036da:	8afb      	ldrh	r3, [r7, #22]
 80036dc:	4313      	orrs	r3, r2
 80036de:	82fb      	strh	r3, [r7, #22]

  /* Select the Polarity and set the CC3E Bit */
  tmpccer &= (uint16_t)~(TIM_CCER_CC3P | TIM_CCER_CC3NP);
 80036e0:	8abb      	ldrh	r3, [r7, #20]
 80036e2:	f423 6320 	bic.w	r3, r3, #2560	; 0xa00
 80036e6:	82bb      	strh	r3, [r7, #20]
  tmpccer |= (uint16_t)(tmp | (uint16_t)TIM_CCER_CC3E);
 80036e8:	8a7a      	ldrh	r2, [r7, #18]
 80036ea:	8abb      	ldrh	r3, [r7, #20]
 80036ec:	4313      	orrs	r3, r2
 80036ee:	b29b      	uxth	r3, r3
 80036f0:	f443 7380 	orr.w	r3, r3, #256	; 0x100
 80036f4:	82bb      	strh	r3, [r7, #20]

  /* Write to TIMx CCMR2 and CCER registers */
  TIMx->CCMR2 = tmpccmr2;
 80036f6:	68fb      	ldr	r3, [r7, #12]
 80036f8:	8afa      	ldrh	r2, [r7, #22]
 80036fa:	839a      	strh	r2, [r3, #28]
  TIMx->CCER = tmpccer;
 80036fc:	68fb      	ldr	r3, [r7, #12]
 80036fe:	8aba      	ldrh	r2, [r7, #20]
 8003700:	841a      	strh	r2, [r3, #32]
}
 8003702:	f107 071c 	add.w	r7, r7, #28
 8003706:	46bd      	mov	sp, r7
 8003708:	bc80      	pop	{r7}
 800370a:	4770      	bx	lr

0800370c <TI4_Config>:
  *          This parameter must be a value between 0x00 and 0x0F.
  * @retval None
  */
static void TI4_Config(TIM_TypeDef* TIMx, uint16_t TIM_ICPolarity, uint16_t TIM_ICSelection,
                       uint16_t TIM_ICFilter)
{
 800370c:	b480      	push	{r7}
 800370e:	b087      	sub	sp, #28
 8003710:	af00      	add	r7, sp, #0
 8003712:	60f8      	str	r0, [r7, #12]
 8003714:	8179      	strh	r1, [r7, #10]
 8003716:	813a      	strh	r2, [r7, #8]
 8003718:	80fb      	strh	r3, [r7, #6]
  uint16_t tmpccmr2 = 0, tmpccer = 0, tmp = 0;
 800371a:	f04f 0300 	mov.w	r3, #0
 800371e:	82fb      	strh	r3, [r7, #22]
 8003720:	f04f 0300 	mov.w	r3, #0
 8003724:	82bb      	strh	r3, [r7, #20]
 8003726:	f04f 0300 	mov.w	r3, #0
 800372a:	827b      	strh	r3, [r7, #18]

  /* Disable the Channel 4: Reset the CC4E Bit */
  TIMx->CCER &= (uint16_t)~TIM_CCER_CC4E;
 800372c:	68fb      	ldr	r3, [r7, #12]
 800372e:	8c1b      	ldrh	r3, [r3, #32]
 8003730:	b29b      	uxth	r3, r3
 8003732:	f423 5380 	bic.w	r3, r3, #4096	; 0x1000
 8003736:	b29a      	uxth	r2, r3
 8003738:	68fb      	ldr	r3, [r7, #12]
 800373a:	841a      	strh	r2, [r3, #32]
  tmpccmr2 = TIMx->CCMR2;
 800373c:	68fb      	ldr	r3, [r7, #12]
 800373e:	8b9b      	ldrh	r3, [r3, #28]
 8003740:	82fb      	strh	r3, [r7, #22]
  tmpccer = TIMx->CCER;
 8003742:	68fb      	ldr	r3, [r7, #12]
 8003744:	8c1b      	ldrh	r3, [r3, #32]
 8003746:	82bb      	strh	r3, [r7, #20]
  tmp = (uint16_t)(TIM_ICPolarity << 12);
 8003748:	897b      	ldrh	r3, [r7, #10]
 800374a:	ea4f 3303 	mov.w	r3, r3, lsl #12
 800374e:	827b      	strh	r3, [r7, #18]

  /* Select the Input and set the filter */
  tmpccmr2 &= ((uint16_t)~TIM_CCMR1_CC2S) & ((uint16_t)~TIM_CCMR1_IC2F);
 8003750:	8afb      	ldrh	r3, [r7, #22]
 8003752:	f423 7340 	bic.w	r3, r3, #768	; 0x300
 8003756:	ea4f 5303 	mov.w	r3, r3, lsl #20
 800375a:	ea4f 5313 	mov.w	r3, r3, lsr #20
 800375e:	82fb      	strh	r3, [r7, #22]
  tmpccmr2 |= (uint16_t)(TIM_ICSelection << 8);
 8003760:	893b      	ldrh	r3, [r7, #8]
 8003762:	ea4f 2303 	mov.w	r3, r3, lsl #8
 8003766:	b29a      	uxth	r2, r3
 8003768:	8afb      	ldrh	r3, [r7, #22]
 800376a:	4313      	orrs	r3, r2
 800376c:	82fb      	strh	r3, [r7, #22]
  tmpccmr2 |= (uint16_t)(TIM_ICFilter << 12);
 800376e:	88fb      	ldrh	r3, [r7, #6]
 8003770:	ea4f 3303 	mov.w	r3, r3, lsl #12
 8003774:	b29a      	uxth	r2, r3
 8003776:	8afb      	ldrh	r3, [r7, #22]
 8003778:	4313      	orrs	r3, r2
 800377a:	82fb      	strh	r3, [r7, #22]

  /* Select the Polarity and set the CC4E Bit */
  tmpccer &= (uint16_t)~(TIM_CCER_CC4P | TIM_CCER_CC4NP);
 800377c:	8abb      	ldrh	r3, [r7, #20]
 800377e:	f423 5300 	bic.w	r3, r3, #8192	; 0x2000
 8003782:	ea4f 4343 	mov.w	r3, r3, lsl #17
 8003786:	ea4f 4353 	mov.w	r3, r3, lsr #17
 800378a:	82bb      	strh	r3, [r7, #20]
  tmpccer |= (uint16_t)(tmp | (uint16_t)TIM_CCER_CC4E);
 800378c:	8a7a      	ldrh	r2, [r7, #18]
 800378e:	8abb      	ldrh	r3, [r7, #20]
 8003790:	4313      	orrs	r3, r2
 8003792:	b29b      	uxth	r3, r3
 8003794:	f443 5380 	orr.w	r3, r3, #4096	; 0x1000
 8003798:	82bb      	strh	r3, [r7, #20]

  /* Write to TIMx CCMR2 and CCER registers */
  TIMx->CCMR2 = tmpccmr2;
 800379a:	68fb      	ldr	r3, [r7, #12]
 800379c:	8afa      	ldrh	r2, [r7, #22]
 800379e:	839a      	strh	r2, [r3, #28]
  TIMx->CCER = tmpccer ;
 80037a0:	68fb      	ldr	r3, [r7, #12]
 80037a2:	8aba      	ldrh	r2, [r7, #20]
 80037a4:	841a      	strh	r2, [r3, #32]
}
 80037a6:	f107 071c 	add.w	r7, r7, #28
 80037aa:	46bd      	mov	sp, r7
 80037ac:	bc80      	pop	{r7}
 80037ae:	4770      	bx	lr
 80037b0:	08003824 	.word	0x08003824
 80037b4:	20000188 	.word	0x20000188
 80037b8:	200001ac 	.word	0x200001ac
 80037bc:	200001ac 	.word	0x200001ac
 80037c0:	200001b0 	.word	0x200001b0

080037c4 <Reset_Handler>:
  .weak  Reset_Handler
  .type  Reset_Handler, %function

Reset_Handler:  
/* Copy the data segment initializers from flash to SRAM */  
  movs  r1, #0
 80037c4:	2100      	movs	r1, #0
  b  LoopCopyDataInit
 80037c6:	f000 b804 	b.w	80037d2 <LoopCopyDataInit>

080037ca <CopyDataInit>:

CopyDataInit:
  ldr  r3, =_sidata
 80037ca:	4b0f      	ldr	r3, [pc, #60]	; (8003808 <LoopFillZerobss+0x1e>)
  ldr  r3, [r3, r1]
 80037cc:	585b      	ldr	r3, [r3, r1]
  str  r3, [r0, r1]
 80037ce:	5043      	str	r3, [r0, r1]
  adds  r1, r1, #4
 80037d0:	3104      	adds	r1, #4

080037d2 <LoopCopyDataInit>:
    
LoopCopyDataInit:
  ldr  r0, =_sdata
 80037d2:	480e      	ldr	r0, [pc, #56]	; (800380c <LoopFillZerobss+0x22>)
  ldr  r3, =_edata
 80037d4:	4b0e      	ldr	r3, [pc, #56]	; (8003810 <LoopFillZerobss+0x26>)
  adds  r2, r0, r1
 80037d6:	1842      	adds	r2, r0, r1
  cmp  r2, r3
 80037d8:	429a      	cmp	r2, r3
  bcc  CopyDataInit
 80037da:	f4ff aff6 	bcc.w	80037ca <CopyDataInit>
  ldr  r2, =_sbss
 80037de:	4a0d      	ldr	r2, [pc, #52]	; (8003814 <LoopFillZerobss+0x2a>)
  b  LoopFillZerobss
 80037e0:	f000 b803 	b.w	80037ea <LoopFillZerobss>

080037e4 <FillZerobss>:

/* Zero fill the bss segment. */  
FillZerobss:
  movs  r3, #0
 80037e4:	2300      	movs	r3, #0
  str  r3, [r2], #4
 80037e6:	f842 3b04 	str.w	r3, [r2], #4

080037ea <LoopFillZerobss>:
    
LoopFillZerobss:
  ldr  r3, = _ebss
 80037ea:	4b0b      	ldr	r3, [pc, #44]	; (8003818 <LoopFillZerobss+0x2e>)
  cmp  r2, r3
 80037ec:	429a      	cmp	r2, r3
  bcc  FillZerobss
 80037ee:	f4ff aff9 	bcc.w	80037e4 <FillZerobss>

/* FPU settings */
/* Enable CP10,CP11: Privileged and User mode access to coprocessor */
 ldr     r0, =0xE000ED88           
 80037f2:	480a      	ldr	r0, [pc, #40]	; (800381c <LoopFillZerobss+0x32>)
 ldr     r1,[r0]
 80037f4:	6801      	ldr	r1, [r0, #0]
 orr     r1,r1,#(0xF << 20)
 80037f6:	f441 0170 	orr.w	r1, r1, #15728640	; 0xf00000
 str     r1,[r0]
 80037fa:	6001      	str	r1, [r0, #0]

/* TODO: Add stack painting here */

/* Call the clock system intitialization function.*/
  bl  low_level_init   
 80037fc:	f7fc ff62 	bl	80006c4 <low_level_init>

/* Call the application's entry point.*/
  bl  main  /* Enter the C/C++ code */
 8003800:	f7fe f884 	bl	800190c <main>
  bx  lr    
 8003804:	4770      	bx	lr
  swi 0x0  /* cause exception if main() ever returns */
 8003806:	df00      	svc	0
/* Copy the data segment initializers from flash to SRAM */  
  movs  r1, #0
  b  LoopCopyDataInit

CopyDataInit:
  ldr  r3, =_sidata
 8003808:	08003824 	.word	0x08003824
  ldr  r3, [r3, r1]
  str  r3, [r0, r1]
  adds  r1, r1, #4
    
LoopCopyDataInit:
  ldr  r0, =_sdata
 800380c:	20000188 	.word	0x20000188
  ldr  r3, =_edata
 8003810:	200001ac 	.word	0x200001ac
  adds  r2, r0, r1
  cmp  r2, r3
  bcc  CopyDataInit
  ldr  r2, =_sbss
 8003814:	200001ac 	.word	0x200001ac
FillZerobss:
  movs  r3, #0
  str  r3, [r2], #4
    
LoopFillZerobss:
  ldr  r3, = _ebss
 8003818:	200001b0 	.word	0x200001b0
  cmp  r2, r3
  bcc  FillZerobss

/* FPU settings */
/* Enable CP10,CP11: Privileged and User mode access to coprocessor */
 ldr     r0, =0xE000ED88           
 800381c:	e000ed88 	.word	0xe000ed88

08003820 <ADC_IRQHandler>:
 * @retval None       
*/
    .section  .text.Default_Handler,"ax",%progbits
Default_Handler:
Infinite_Loop:
  b  Infinite_Loop
 8003820:	f7ff bffe 	b.w	8003820 <ADC_IRQHandler>
